ARM GAS  /var/folders/l2/71_2bdwd5hl5fnnvwg2sr4v80000gn/T//ccJdbVnv.s 			page 1


   1              		.cpu cortex-m4
   2              		.arch armv7e-m
   3              		.fpu fpv4-sp-d16
   4              		.eabi_attribute 27, 1
   5              		.eabi_attribute 28, 1
   6              		.eabi_attribute 20, 1
   7              		.eabi_attribute 21, 1
   8              		.eabi_attribute 23, 3
   9              		.eabi_attribute 24, 1
  10              		.eabi_attribute 25, 1
  11              		.eabi_attribute 26, 1
  12              		.eabi_attribute 30, 1
  13              		.eabi_attribute 34, 1
  14              		.eabi_attribute 18, 4
  15              		.file	"main.c"
  16              		.text
  17              	.Ltext0:
  18              		.cfi_sections	.debug_frame
  19              		.file 1 "Core/Src/main.c"
  20              		.section	.text.spiCalcEvenParity,"ax",%progbits
  21              		.align	1
  22              		.global	spiCalcEvenParity
  23              		.syntax unified
  24              		.thumb
  25              		.thumb_func
  27              	spiCalcEvenParity:
  28              	.LVL0:
  29              	.LFB126:
   1:Core/Src/main.c **** /* USER CODE BEGIN Header */
   2:Core/Src/main.c **** /**
   3:Core/Src/main.c ****  ******************************************************************************
   4:Core/Src/main.c ****  * @file           : main.c
   5:Core/Src/main.c ****  * @brief          : Main program body
   6:Core/Src/main.c ****  ******************************************************************************
   7:Core/Src/main.c ****  * @attention
   8:Core/Src/main.c ****  *
   9:Core/Src/main.c ****  * Copyright (c) 2024 STMicroelectronics.
  10:Core/Src/main.c ****  * All rights reserved.
  11:Core/Src/main.c ****  *
  12:Core/Src/main.c ****  * This software is licensed under terms that can be found in the LICENSE file
  13:Core/Src/main.c ****  * in the root directory of this software component.
  14:Core/Src/main.c ****  * If no LICENSE file comes with this software, it is provided AS-IS.
  15:Core/Src/main.c ****  *
  16:Core/Src/main.c ****  ******************************************************************************
  17:Core/Src/main.c ****  */
  18:Core/Src/main.c **** /* USER CODE END Header */
  19:Core/Src/main.c **** /* Includes ------------------------------------------------------------------*/
  20:Core/Src/main.c **** #include "main.h"
  21:Core/Src/main.c **** #include "dma.h"
  22:Core/Src/main.c **** #include "spi.h"
  23:Core/Src/main.c **** #include "tim.h"
  24:Core/Src/main.c **** #include "usart.h"
  25:Core/Src/main.c **** #include "gpio.h"
  26:Core/Src/main.c **** 
  27:Core/Src/main.c **** /* Private includes ----------------------------------------------------------*/
  28:Core/Src/main.c **** /* USER CODE BEGIN Includes */
  29:Core/Src/main.c **** #include <math.h>
ARM GAS  /var/folders/l2/71_2bdwd5hl5fnnvwg2sr4v80000gn/T//ccJdbVnv.s 			page 2


  30:Core/Src/main.c **** #include <stdio.h>
  31:Core/Src/main.c **** 
  32:Core/Src/main.c **** #include "dma_printf.h"
  33:Core/Src/main.c **** /* USER CODE END Includes */
  34:Core/Src/main.c **** 
  35:Core/Src/main.c **** /* Private typedef -----------------------------------------------------------*/
  36:Core/Src/main.c **** /* USER CODE BEGIN PTD */
  37:Core/Src/main.c **** 
  38:Core/Src/main.c **** /* USER CODE END PTD */
  39:Core/Src/main.c **** 
  40:Core/Src/main.c **** /* Private define ------------------------------------------------------------*/
  41:Core/Src/main.c **** /* USER CODE BEGIN PD */
  42:Core/Src/main.c **** #define radians(x) ((x) * 3.14159265358979323846 / 180.0)
  43:Core/Src/main.c **** 
  44:Core/Src/main.c **** #define CS_LOW() HAL_GPIO_WritePin(GPIOA, GPIO_PIN_4, GPIO_PIN_RESET)
  45:Core/Src/main.c **** #define CS_HIGH() HAL_GPIO_WritePin(GPIOA, GPIO_PIN_4, GPIO_PIN_SET)
  46:Core/Src/main.c **** /* USER CODE END PD */
  47:Core/Src/main.c **** 
  48:Core/Src/main.c **** /* Private macro -------------------------------------------------------------*/
  49:Core/Src/main.c **** /* USER CODE BEGIN PM */
  50:Core/Src/main.c **** 
  51:Core/Src/main.c **** /* USER CODE END PM */
  52:Core/Src/main.c **** 
  53:Core/Src/main.c **** /* Private variables ---------------------------------------------------------*/
  54:Core/Src/main.c **** 
  55:Core/Src/main.c **** /* USER CODE BEGIN PV */
  56:Core/Src/main.c **** 
  57:Core/Src/main.c **** /* USER CODE END PV */
  58:Core/Src/main.c **** 
  59:Core/Src/main.c **** /* Private function prototypes -----------------------------------------------*/
  60:Core/Src/main.c **** void SystemClock_Config(void);
  61:Core/Src/main.c **** /* USER CODE BEGIN PFP */
  62:Core/Src/main.c **** 
  63:Core/Src/main.c **** /* USER CODE END PFP */
  64:Core/Src/main.c **** 
  65:Core/Src/main.c **** /* Private user code ---------------------------------------------------------*/
  66:Core/Src/main.c **** /* USER CODE BEGIN 0 */
  67:Core/Src/main.c **** #define AS5048A_ANGLE 0x3FFF
  68:Core/Src/main.c **** 
  69:Core/Src/main.c **** uint8_t spiCalcEvenParity(uint16_t value) {
  30              		.loc 1 69 43 view -0
  31              		.cfi_startproc
  32              		@ args = 0, pretend = 0, frame = 0
  33              		@ frame_needed = 0, uses_anonymous_args = 0
  34              		@ link register save eliminated.
  35              		.loc 1 69 43 is_stmt 0 view .LVU1
  36 0000 0246     		mov	r2, r0
  70:Core/Src/main.c ****     uint8_t cnt = 0;
  37              		.loc 1 70 5 is_stmt 1 view .LVU2
  38              	.LVL1:
  71:Core/Src/main.c ****     for (uint8_t i = 0; i < 16; i++) {
  39              		.loc 1 71 5 view .LVU3
  40              	.LBB4:
  41              		.loc 1 71 10 view .LVU4
  42              		.loc 1 71 18 is_stmt 0 view .LVU5
  43 0002 0023     		movs	r3, #0
  44              	.LBE4:
ARM GAS  /var/folders/l2/71_2bdwd5hl5fnnvwg2sr4v80000gn/T//ccJdbVnv.s 			page 3


  70:Core/Src/main.c ****     uint8_t cnt = 0;
  45              		.loc 1 70 13 view .LVU6
  46 0004 1846     		mov	r0, r3
  47              	.LVL2:
  48              	.LBB5:
  49              		.loc 1 71 5 view .LVU7
  50 0006 02E0     		b	.L2
  51              	.LVL3:
  52              	.L3:
  72:Core/Src/main.c ****         if (value & 0x1) {
  73:Core/Src/main.c ****             cnt++;
  74:Core/Src/main.c ****         }
  75:Core/Src/main.c ****         value >>= 1;
  53              		.loc 1 75 9 is_stmt 1 discriminator 2 view .LVU8
  54              		.loc 1 75 15 is_stmt 0 discriminator 2 view .LVU9
  55 0008 5208     		lsrs	r2, r2, #1
  56              	.LVL4:
  71:Core/Src/main.c ****     for (uint8_t i = 0; i < 16; i++) {
  57              		.loc 1 71 34 is_stmt 1 discriminator 2 view .LVU10
  58 000a 0133     		adds	r3, r3, #1
  59              	.LVL5:
  71:Core/Src/main.c ****     for (uint8_t i = 0; i < 16; i++) {
  60              		.loc 1 71 34 is_stmt 0 discriminator 2 view .LVU11
  61 000c DBB2     		uxtb	r3, r3
  62              	.LVL6:
  63              	.L2:
  71:Core/Src/main.c ****     for (uint8_t i = 0; i < 16; i++) {
  64              		.loc 1 71 27 is_stmt 1 discriminator 1 view .LVU12
  65 000e 0F2B     		cmp	r3, #15
  66 0010 05D8     		bhi	.L5
  72:Core/Src/main.c ****         if (value & 0x1) {
  67              		.loc 1 72 9 view .LVU13
  72:Core/Src/main.c ****         if (value & 0x1) {
  68              		.loc 1 72 12 is_stmt 0 view .LVU14
  69 0012 12F0010F 		tst	r2, #1
  70 0016 F7D0     		beq	.L3
  73:Core/Src/main.c ****         }
  71              		.loc 1 73 13 is_stmt 1 view .LVU15
  73:Core/Src/main.c ****         }
  72              		.loc 1 73 16 is_stmt 0 view .LVU16
  73 0018 0130     		adds	r0, r0, #1
  74              	.LVL7:
  73:Core/Src/main.c ****         }
  75              		.loc 1 73 16 view .LVU17
  76 001a C0B2     		uxtb	r0, r0
  77              	.LVL8:
  73:Core/Src/main.c ****         }
  78              		.loc 1 73 16 view .LVU18
  79 001c F4E7     		b	.L3
  80              	.L5:
  73:Core/Src/main.c ****         }
  81              		.loc 1 73 16 view .LVU19
  82              	.LBE5:
  76:Core/Src/main.c ****     }
  77:Core/Src/main.c ****     return cnt & 0x1;
  83              		.loc 1 77 5 is_stmt 1 view .LVU20
  78:Core/Src/main.c **** }
ARM GAS  /var/folders/l2/71_2bdwd5hl5fnnvwg2sr4v80000gn/T//ccJdbVnv.s 			page 4


  84              		.loc 1 78 1 is_stmt 0 view .LVU21
  85 001e 00F00100 		and	r0, r0, #1
  86              	.LVL9:
  87              		.loc 1 78 1 view .LVU22
  88 0022 7047     		bx	lr
  89              		.cfi_endproc
  90              	.LFE126:
  92              		.section	.text.AS5048A_read,"ax",%progbits
  93              		.align	1
  94              		.global	AS5048A_read
  95              		.syntax unified
  96              		.thumb
  97              		.thumb_func
  99              	AS5048A_read:
 100              	.LVL10:
 101              	.LFB127:
  79:Core/Src/main.c **** 
  80:Core/Src/main.c **** uint16_t AS5048A_read(uint16_t registerAddress) {
 102              		.loc 1 80 49 is_stmt 1 view -0
 103              		.cfi_startproc
 104              		@ args = 0, pretend = 0, frame = 8
 105              		@ frame_needed = 0, uses_anonymous_args = 0
 106              		.loc 1 80 49 is_stmt 0 view .LVU24
 107 0000 30B5     		push	{r4, r5, lr}
 108              	.LCFI0:
 109              		.cfi_def_cfa_offset 12
 110              		.cfi_offset 4, -12
 111              		.cfi_offset 5, -8
 112              		.cfi_offset 14, -4
 113 0002 83B0     		sub	sp, sp, #12
 114              	.LCFI1:
 115              		.cfi_def_cfa_offset 24
  81:Core/Src/main.c ****     uint16_t command = 0x4000 | registerAddress;
 116              		.loc 1 81 5 is_stmt 1 view .LVU25
 117              		.loc 1 81 14 is_stmt 0 view .LVU26
 118 0004 40F48044 		orr	r4, r0, #16384
 119 0008 ADF80640 		strh	r4, [sp, #6]	@ movhi
  82:Core/Src/main.c **** 
  83:Core/Src/main.c ****     // パリティビットの追加
  84:Core/Src/main.c ****     command |= spiCalcEvenParity(command) << 15;
 120              		.loc 1 84 5 is_stmt 1 view .LVU27
 121              		.loc 1 84 16 is_stmt 0 view .LVU28
 122 000c 2046     		mov	r0, r4
 123              	.LVL11:
 124              		.loc 1 84 16 view .LVU29
 125 000e FFF7FEFF 		bl	spiCalcEvenParity
 126              	.LVL12:
 127              		.loc 1 84 13 view .LVU30
 128 0012 44EAC034 		orr	r4, r4, r0, lsl #15
 129 0016 ADF80640 		strh	r4, [sp, #6]	@ movhi
  85:Core/Src/main.c **** 
  86:Core/Src/main.c ****     uint16_t response = 0;
 130              		.loc 1 86 5 is_stmt 1 view .LVU31
 131              		.loc 1 86 14 is_stmt 0 view .LVU32
 132 001a 0024     		movs	r4, #0
 133 001c ADF80440 		strh	r4, [sp, #4]	@ movhi
  87:Core/Src/main.c **** 
ARM GAS  /var/folders/l2/71_2bdwd5hl5fnnvwg2sr4v80000gn/T//ccJdbVnv.s 			page 5


  88:Core/Src/main.c ****     // SPI通信開始
  89:Core/Src/main.c ****     CS_LOW();
 134              		.loc 1 89 5 is_stmt 1 view .LVU33
 135 0020 2246     		mov	r2, r4
 136 0022 1021     		movs	r1, #16
 137 0024 4FF09040 		mov	r0, #1207959552
 138 0028 FFF7FEFF 		bl	HAL_GPIO_WritePin
 139              	.LVL13:
  90:Core/Src/main.c ****     HAL_SPI_Transmit(&hspi1, (uint8_t *)&command, 1, HAL_MAX_DELAY);
 140              		.loc 1 90 5 view .LVU34
 141 002c 134D     		ldr	r5, .L8
 142 002e 4FF0FF33 		mov	r3, #-1
 143 0032 0122     		movs	r2, #1
 144 0034 0DF10601 		add	r1, sp, #6
 145 0038 2846     		mov	r0, r5
 146 003a FFF7FEFF 		bl	HAL_SPI_Transmit
 147              	.LVL14:
  91:Core/Src/main.c ****     CS_HIGH();
 148              		.loc 1 91 5 view .LVU35
 149 003e 0122     		movs	r2, #1
 150 0040 1021     		movs	r1, #16
 151 0042 4FF09040 		mov	r0, #1207959552
 152 0046 FFF7FEFF 		bl	HAL_GPIO_WritePin
 153              	.LVL15:
  92:Core/Src/main.c **** 
  93:Core/Src/main.c ****     // データ受信
  94:Core/Src/main.c ****     CS_LOW();
 154              		.loc 1 94 5 view .LVU36
 155 004a 2246     		mov	r2, r4
 156 004c 1021     		movs	r1, #16
 157 004e 4FF09040 		mov	r0, #1207959552
 158 0052 FFF7FEFF 		bl	HAL_GPIO_WritePin
 159              	.LVL16:
  95:Core/Src/main.c ****     HAL_SPI_Receive(&hspi1, (uint8_t *)&response, 1, HAL_MAX_DELAY);
 160              		.loc 1 95 5 view .LVU37
 161 0056 4FF0FF33 		mov	r3, #-1
 162 005a 0122     		movs	r2, #1
 163 005c 01A9     		add	r1, sp, #4
 164 005e 2846     		mov	r0, r5
 165 0060 FFF7FEFF 		bl	HAL_SPI_Receive
 166              	.LVL17:
  96:Core/Src/main.c ****     CS_HIGH();
 167              		.loc 1 96 5 view .LVU38
 168 0064 0122     		movs	r2, #1
 169 0066 1021     		movs	r1, #16
 170 0068 4FF09040 		mov	r0, #1207959552
 171 006c FFF7FEFF 		bl	HAL_GPIO_WritePin
 172              	.LVL18:
  97:Core/Src/main.c **** 
  98:Core/Src/main.c ****     // エラービットの確認（必要に応じて実装）
  99:Core/Src/main.c ****     if (response & 0x4000) {
 173              		.loc 1 99 5 view .LVU39
 174              		.loc 1 99 18 is_stmt 0 view .LVU40
 175 0070 BDF80400 		ldrh	r0, [sp, #4]
 100:Core/Src/main.c ****         // エラー処理
 101:Core/Src/main.c ****     }
 176              		.loc 1 101 5 is_stmt 1 view .LVU41
ARM GAS  /var/folders/l2/71_2bdwd5hl5fnnvwg2sr4v80000gn/T//ccJdbVnv.s 			page 6


 102:Core/Src/main.c **** 
 103:Core/Src/main.c ****     return response & 0x3FFF;  // データ部分のみ返す
 177              		.loc 1 103 5 view .LVU42
 104:Core/Src/main.c **** }
 178              		.loc 1 104 1 is_stmt 0 view .LVU43
 179 0074 C0F30D00 		ubfx	r0, r0, #0, #14
 180 0078 03B0     		add	sp, sp, #12
 181              	.LCFI2:
 182              		.cfi_def_cfa_offset 12
 183              		@ sp needed
 184 007a 30BD     		pop	{r4, r5, pc}
 185              	.L9:
 186              		.align	2
 187              	.L8:
 188 007c 00000000 		.word	hspi1
 189              		.cfi_endproc
 190              	.LFE127:
 192              		.section	.text.getRotation,"ax",%progbits
 193              		.align	1
 194              		.global	getRotation
 195              		.syntax unified
 196              		.thumb
 197              		.thumb_func
 199              	getRotation:
 200              	.LFB128:
 105:Core/Src/main.c **** 
 106:Core/Src/main.c **** int16_t getRotation() {
 201              		.loc 1 106 23 is_stmt 1 view -0
 202              		.cfi_startproc
 203              		@ args = 0, pretend = 0, frame = 0
 204              		@ frame_needed = 0, uses_anonymous_args = 0
 205 0000 08B5     		push	{r3, lr}
 206              	.LCFI3:
 207              		.cfi_def_cfa_offset 8
 208              		.cfi_offset 3, -8
 209              		.cfi_offset 14, -4
 107:Core/Src/main.c ****     uint16_t data = AS5048A_read(AS5048A_ANGLE);
 210              		.loc 1 107 5 view .LVU45
 211              		.loc 1 107 21 is_stmt 0 view .LVU46
 212 0002 43F6FF70 		movw	r0, #16383
 213 0006 FFF7FEFF 		bl	AS5048A_read
 214              	.LVL19:
 108:Core/Src/main.c ****     int16_t rotation = (int16_t)data;
 215              		.loc 1 108 5 is_stmt 1 view .LVU47
 109:Core/Src/main.c ****     return rotation;
 216              		.loc 1 109 5 view .LVU48
 110:Core/Src/main.c **** }
 217              		.loc 1 110 1 is_stmt 0 view .LVU49
 218 000a 00B2     		sxth	r0, r0
 219              		.loc 1 110 1 view .LVU50
 220 000c 08BD     		pop	{r3, pc}
 221              		.cfi_endproc
 222              	.LFE128:
 224              		.section	.text.electrical_angle,"ax",%progbits
 225              		.align	1
 226              		.global	electrical_angle
 227              		.syntax unified
ARM GAS  /var/folders/l2/71_2bdwd5hl5fnnvwg2sr4v80000gn/T//ccJdbVnv.s 			page 7


 228              		.thumb
 229              		.thumb_func
 231              	electrical_angle:
 232              	.LVL20:
 233              	.LFB129:
 111:Core/Src/main.c **** 
 112:Core/Src/main.c **** // 電気角
 113:Core/Src/main.c **** uint16_t electrical_angle(int16_t offset) {
 234              		.loc 1 113 43 is_stmt 1 view -0
 235              		.cfi_startproc
 236              		@ args = 0, pretend = 0, frame = 0
 237              		@ frame_needed = 0, uses_anonymous_args = 0
 238              		.loc 1 113 43 is_stmt 0 view .LVU52
 239 0000 10B5     		push	{r4, lr}
 240              	.LCFI4:
 241              		.cfi_def_cfa_offset 8
 242              		.cfi_offset 4, -8
 243              		.cfi_offset 14, -4
 244 0002 0446     		mov	r4, r0
 114:Core/Src/main.c ****     uint32_t rotation = getRotation() - offset;
 245              		.loc 1 114 5 is_stmt 1 view .LVU53
 246              		.loc 1 114 25 is_stmt 0 view .LVU54
 247 0004 FFF7FEFF 		bl	getRotation
 248              	.LVL21:
 115:Core/Src/main.c ****     rotation += 8192;
 249              		.loc 1 115 5 is_stmt 1 view .LVU55
 116:Core/Src/main.c ****     rotation %= 8192;
 250              		.loc 1 116 5 view .LVU56
 117:Core/Src/main.c **** 
 118:Core/Src/main.c ****     // 7回で一回転
 119:Core/Src/main.c ****     rotation %= 1170;
 251              		.loc 1 119 5 view .LVU57
 252              		.loc 1 119 14 is_stmt 0 view .LVU58
 253 0008 001B     		subs	r0, r0, r4
 254              	.LVL22:
 255              		.loc 1 119 14 view .LVU59
 256 000a C0F30C02 		ubfx	r2, r0, #0, #13
 257 000e C0F34B00 		ubfx	r0, r0, #1, #12
 258 0012 054B     		ldr	r3, .L14
 259 0014 A3FB0030 		umull	r3, r0, r3, r0
 260 0018 400A     		lsrs	r0, r0, #9
 261 001a 40F29243 		movw	r3, #1170
 262 001e 03FB1020 		mls	r0, r3, r0, r2
 263              	.LVL23:
 120:Core/Src/main.c **** 
 121:Core/Src/main.c ****     return (uint16_t)rotation;
 264              		.loc 1 121 5 is_stmt 1 view .LVU60
 122:Core/Src/main.c **** }
 265              		.loc 1 122 1 is_stmt 0 view .LVU61
 266 0022 80B2     		uxth	r0, r0
 267              	.LVL24:
 268              		.loc 1 122 1 view .LVU62
 269 0024 10BD     		pop	{r4, pc}
 270              	.L15:
 271 0026 00BF     		.align	2
 272              	.L14:
 273 0028 E1000EE0 		.word	-535953183
ARM GAS  /var/folders/l2/71_2bdwd5hl5fnnvwg2sr4v80000gn/T//ccJdbVnv.s 			page 8


 274              		.cfi_endproc
 275              	.LFE129:
 277              		.section	.text.setPhase,"ax",%progbits
 278              		.align	1
 279              		.global	setPhase
 280              		.syntax unified
 281              		.thumb
 282              		.thumb_func
 284              	setPhase:
 285              	.LVL25:
 286              	.LFB130:
 123:Core/Src/main.c **** 
 124:Core/Src/main.c **** float cos_table[1170];
 125:Core/Src/main.c **** 
 126:Core/Src/main.c **** void setPhase(uint16_t phase, uint16_t pwm_pwr) {
 287              		.loc 1 126 49 is_stmt 1 view -0
 288              		.cfi_startproc
 289              		@ args = 0, pretend = 0, frame = 8
 290              		@ frame_needed = 0, uses_anonymous_args = 0
 291              		.loc 1 126 49 is_stmt 0 view .LVU64
 292 0000 30B5     		push	{r4, r5, lr}
 293              	.LCFI5:
 294              		.cfi_def_cfa_offset 12
 295              		.cfi_offset 4, -12
 296              		.cfi_offset 5, -8
 297              		.cfi_offset 14, -4
 298 0002 83B0     		sub	sp, sp, #12
 299              	.LCFI6:
 300              		.cfi_def_cfa_offset 24
 301 0004 07EE901A 		vmov	s15, r1	@ int
 127:Core/Src/main.c ****     uint16_t sinwave[3];
 302              		.loc 1 127 5 is_stmt 1 view .LVU65
 128:Core/Src/main.c **** 
 129:Core/Src/main.c ****     sinwave[0] = pwm_pwr + pwm_pwr * cos_table[(phase + 0) % 1170];
 303              		.loc 1 129 5 view .LVU66
 304              		.loc 1 129 26 is_stmt 0 view .LVU67
 305 0008 F8EEE77A 		vcvt.f32.s32	s15, s15
 306              		.loc 1 129 60 view .LVU68
 307 000c 294B     		ldr	r3, .L18
 308 000e 83FB0012 		smull	r1, r2, r3, r0
 309              	.LVL26:
 310              		.loc 1 129 60 view .LVU69
 311 0012 0244     		add	r2, r2, r0
 312 0014 9212     		asrs	r2, r2, #10
 313 0016 40F2924C 		movw	ip, #1170
 314 001a 0CFB1202 		mls	r2, ip, r2, r0
 315              		.loc 1 129 47 view .LVU70
 316 001e 264C     		ldr	r4, .L18+4
 317 0020 04EB8202 		add	r2, r4, r2, lsl #2
 318 0024 92ED007A 		vldr.32	s14, [r2]
 319              		.loc 1 129 36 view .LVU71
 320 0028 27EE877A 		vmul.f32	s14, s15, s14
 321              		.loc 1 129 26 view .LVU72
 322 002c 37EE877A 		vadd.f32	s14, s15, s14
 323              		.loc 1 129 16 view .LVU73
 324 0030 BCEEC77A 		vcvt.u32.f32	s14, s14
 325 0034 17EE102A 		vmov	r2, s14	@ int
ARM GAS  /var/folders/l2/71_2bdwd5hl5fnnvwg2sr4v80000gn/T//ccJdbVnv.s 			page 9


 326 0038 91B2     		uxth	r1, r2
 327 003a ADF80010 		strh	r1, [sp]	@ movhi
 130:Core/Src/main.c ****     sinwave[1] = pwm_pwr + pwm_pwr * cos_table[(phase + 390) % 1170];
 328              		.loc 1 130 5 is_stmt 1 view .LVU74
 329              		.loc 1 130 55 is_stmt 0 view .LVU75
 330 003e 00F5C37E 		add	lr, r0, #390
 331              		.loc 1 130 62 view .LVU76
 332 0042 83FB0E52 		smull	r5, r2, r3, lr
 333 0046 7244     		add	r2, r2, lr
 334 0048 9212     		asrs	r2, r2, #10
 335 004a 0CFB12E2 		mls	r2, ip, r2, lr
 336              		.loc 1 130 47 view .LVU77
 337 004e 04EB8202 		add	r2, r4, r2, lsl #2
 338 0052 92ED007A 		vldr.32	s14, [r2]
 339              		.loc 1 130 36 view .LVU78
 340 0056 27EE877A 		vmul.f32	s14, s15, s14
 341              		.loc 1 130 26 view .LVU79
 342 005a 37EE877A 		vadd.f32	s14, s15, s14
 343              		.loc 1 130 16 view .LVU80
 344 005e BCEEC77A 		vcvt.u32.f32	s14, s14
 345 0062 17EE102A 		vmov	r2, s14	@ int
 346 0066 92B2     		uxth	r2, r2
 347 0068 ADF80220 		strh	r2, [sp, #2]	@ movhi
 131:Core/Src/main.c ****     sinwave[2] = pwm_pwr + pwm_pwr * cos_table[(phase + 780) % 1170];
 348              		.loc 1 131 5 is_stmt 1 view .LVU81
 349              		.loc 1 131 55 is_stmt 0 view .LVU82
 350 006c 00F54370 		add	r0, r0, #780
 351              	.LVL27:
 352              		.loc 1 131 62 view .LVU83
 353 0070 83FB00E3 		smull	lr, r3, r3, r0
 354 0074 0344     		add	r3, r3, r0
 355 0076 9B12     		asrs	r3, r3, #10
 356 0078 0CFB1303 		mls	r3, ip, r3, r0
 357              		.loc 1 131 47 view .LVU84
 358 007c 04EB8304 		add	r4, r4, r3, lsl #2
 359 0080 94ED007A 		vldr.32	s14, [r4]
 360              		.loc 1 131 36 view .LVU85
 361 0084 27EE877A 		vmul.f32	s14, s15, s14
 362              		.loc 1 131 26 view .LVU86
 363 0088 77EE877A 		vadd.f32	s15, s15, s14
 364              		.loc 1 131 16 view .LVU87
 365 008c FCEEE77A 		vcvt.u32.f32	s15, s15
 366 0090 17EE903A 		vmov	r3, s15	@ int
 367 0094 9BB2     		uxth	r3, r3
 368 0096 ADF80430 		strh	r3, [sp, #4]	@ movhi
 132:Core/Src/main.c **** 
 133:Core/Src/main.c ****     // A相
 134:Core/Src/main.c ****     __HAL_TIM_SET_COMPARE(&htim1, TIM_CHANNEL_1, sinwave[0]);
 369              		.loc 1 134 5 is_stmt 1 view .LVU88
 370 009a 0848     		ldr	r0, .L18+8
 371 009c 0068     		ldr	r0, [r0]
 372 009e 4163     		str	r1, [r0, #52]
 135:Core/Src/main.c **** 
 136:Core/Src/main.c ****     // B相
 137:Core/Src/main.c ****     __HAL_TIM_SET_COMPARE(&htim16, TIM_CHANNEL_1, sinwave[1]);
 373              		.loc 1 137 5 view .LVU89
 374 00a0 0749     		ldr	r1, .L18+12
ARM GAS  /var/folders/l2/71_2bdwd5hl5fnnvwg2sr4v80000gn/T//ccJdbVnv.s 			page 10


 375 00a2 0968     		ldr	r1, [r1]
 376 00a4 4A63     		str	r2, [r1, #52]
 138:Core/Src/main.c **** 
 139:Core/Src/main.c ****     // C相
 140:Core/Src/main.c ****     __HAL_TIM_SET_COMPARE(&htim3, TIM_CHANNEL_4, sinwave[2]);
 377              		.loc 1 140 5 view .LVU90
 378 00a6 074A     		ldr	r2, .L18+16
 379 00a8 1268     		ldr	r2, [r2]
 380 00aa 1364     		str	r3, [r2, #64]
 141:Core/Src/main.c ****     __HAL_TIM_SET_COMPARE(&htim1, TIM_CHANNEL_3, sinwave[2]);
 381              		.loc 1 141 5 view .LVU91
 382 00ac C363     		str	r3, [r0, #60]
 142:Core/Src/main.c **** }
 383              		.loc 1 142 1 is_stmt 0 view .LVU92
 384 00ae 03B0     		add	sp, sp, #12
 385              	.LCFI7:
 386              		.cfi_def_cfa_offset 12
 387              		@ sp needed
 388 00b0 30BD     		pop	{r4, r5, pc}
 389              	.L19:
 390 00b2 00BF     		.align	2
 391              	.L18:
 392 00b4 E1000EE0 		.word	-535953183
 393 00b8 00000000 		.word	cos_table
 394 00bc 00000000 		.word	htim1
 395 00c0 00000000 		.word	htim16
 396 00c4 00000000 		.word	htim3
 397              		.cfi_endproc
 398              	.LFE130:
 400              		.section	.text.setVoltage,"ax",%progbits
 401              		.align	1
 402              		.global	setVoltage
 403              		.syntax unified
 404              		.thumb
 405              		.thumb_func
 407              	setVoltage:
 408              	.LVL28:
 409              	.LFB131:
 143:Core/Src/main.c **** 
 144:Core/Src/main.c **** void setVoltage(float a, float b, float c) {
 410              		.loc 1 144 44 is_stmt 1 view -0
 411              		.cfi_startproc
 412              		@ args = 0, pretend = 0, frame = 0
 413              		@ frame_needed = 0, uses_anonymous_args = 0
 414              		@ link register save eliminated.
 145:Core/Src/main.c ****     float batt_voltage = 17;  // バッテリー電圧
 415              		.loc 1 145 5 view .LVU94
 146:Core/Src/main.c **** 
 147:Core/Src/main.c ****     // 電圧値を 0-1023 の範囲にマッピングする
 148:Core/Src/main.c ****     // 電圧 a, b, c をバッテリー電圧で正規化し、0〜1023の範囲にスケーリン
 149:Core/Src/main.c ****     int int_a = (int)((a / batt_voltage) * 1023) + 512;
 416              		.loc 1 149 5 view .LVU95
 417              		.loc 1 149 26 is_stmt 0 view .LVU96
 418 0000 F3EE016A 		vmov.f32	s13, #1.7e+1
 419 0004 C0EE267A 		vdiv.f32	s15, s0, s13
 420              		.loc 1 149 42 view .LVU97
 421 0008 9FED147A 		vldr.32	s14, .L21
ARM GAS  /var/folders/l2/71_2bdwd5hl5fnnvwg2sr4v80000gn/T//ccJdbVnv.s 			page 11


 422 000c 67EE877A 		vmul.f32	s15, s15, s14
 423              		.loc 1 149 17 view .LVU98
 424 0010 FDEEE77A 		vcvt.s32.f32	s15, s15
 425              		.loc 1 149 9 view .LVU99
 426 0014 17EE903A 		vmov	r3, s15	@ int
 427 0018 03F50071 		add	r1, r3, #512
 428              	.LVL29:
 150:Core/Src/main.c ****     int int_b = (int)((b / batt_voltage) * 1023) + 512;
 429              		.loc 1 150 5 is_stmt 1 view .LVU100
 430              		.loc 1 150 26 is_stmt 0 view .LVU101
 431 001c C0EEA67A 		vdiv.f32	s15, s1, s13
 432              		.loc 1 150 42 view .LVU102
 433 0020 67EE877A 		vmul.f32	s15, s15, s14
 434              		.loc 1 150 17 view .LVU103
 435 0024 FDEEE77A 		vcvt.s32.f32	s15, s15
 436              		.loc 1 150 9 view .LVU104
 437 0028 17EE903A 		vmov	r3, s15	@ int
 438 002c 03F50072 		add	r2, r3, #512
 439              	.LVL30:
 151:Core/Src/main.c ****     int int_c = (int)((c / batt_voltage) * 1023) + 512;
 440              		.loc 1 151 5 is_stmt 1 view .LVU105
 441              		.loc 1 151 26 is_stmt 0 view .LVU106
 442 0030 C1EE267A 		vdiv.f32	s15, s2, s13
 443              		.loc 1 151 42 view .LVU107
 444 0034 67EE877A 		vmul.f32	s15, s15, s14
 445              		.loc 1 151 17 view .LVU108
 446 0038 FDEEE77A 		vcvt.s32.f32	s15, s15
 447              		.loc 1 151 9 view .LVU109
 448 003c 17EE903A 		vmov	r3, s15	@ int
 449 0040 03F50073 		add	r3, r3, #512
 450              	.LVL31:
 152:Core/Src/main.c **** 
 153:Core/Src/main.c ****     // PWM信号を各チャネルに設定
 154:Core/Src/main.c ****     // A相
 155:Core/Src/main.c ****     __HAL_TIM_SET_COMPARE(&htim1, TIM_CHANNEL_1, int_a);
 451              		.loc 1 155 5 is_stmt 1 view .LVU110
 452 0044 0648     		ldr	r0, .L21+4
 453 0046 0068     		ldr	r0, [r0]
 454 0048 4163     		str	r1, [r0, #52]
 156:Core/Src/main.c **** 
 157:Core/Src/main.c ****     // B相
 158:Core/Src/main.c ****     __HAL_TIM_SET_COMPARE(&htim16, TIM_CHANNEL_1, int_b);
 455              		.loc 1 158 5 view .LVU111
 456 004a 0649     		ldr	r1, .L21+8
 457              	.LVL32:
 458              		.loc 1 158 5 is_stmt 0 view .LVU112
 459 004c 0968     		ldr	r1, [r1]
 460 004e 4A63     		str	r2, [r1, #52]
 461              	.LVL33:
 159:Core/Src/main.c **** 
 160:Core/Src/main.c ****     // C相
 161:Core/Src/main.c ****     __HAL_TIM_SET_COMPARE(&htim3, TIM_CHANNEL_4, int_c);
 462              		.loc 1 161 5 is_stmt 1 view .LVU113
 463 0050 054A     		ldr	r2, .L21+12
 464              	.LVL34:
 465              		.loc 1 161 5 is_stmt 0 view .LVU114
 466 0052 1268     		ldr	r2, [r2]
ARM GAS  /var/folders/l2/71_2bdwd5hl5fnnvwg2sr4v80000gn/T//ccJdbVnv.s 			page 12


 467 0054 1364     		str	r3, [r2, #64]
 468              	.LVL35:
 162:Core/Src/main.c ****     __HAL_TIM_SET_COMPARE(&htim1, TIM_CHANNEL_3, int_c);
 469              		.loc 1 162 5 is_stmt 1 view .LVU115
 470 0056 C363     		str	r3, [r0, #60]
 163:Core/Src/main.c **** }
 471              		.loc 1 163 1 is_stmt 0 view .LVU116
 472 0058 7047     		bx	lr
 473              	.L22:
 474 005a 00BF     		.align	2
 475              	.L21:
 476 005c 00C07F44 		.word	1149222912
 477 0060 00000000 		.word	htim1
 478 0064 00000000 		.word	htim16
 479 0068 00000000 		.word	htim3
 480              		.cfi_endproc
 481              	.LFE131:
 483              		.section	.text.uint2char,"ax",%progbits
 484              		.align	1
 485              		.global	uint2char
 486              		.syntax unified
 487              		.thumb
 488              		.thumb_func
 490              	uint2char:
 491              	.LVL36:
 492              	.LFB132:
 164:Core/Src/main.c **** 
 165:Core/Src/main.c **** char *uint2char(uint16_t num) {
 493              		.loc 1 165 31 is_stmt 1 view -0
 494              		.cfi_startproc
 495              		@ args = 0, pretend = 0, frame = 0
 496              		@ frame_needed = 0, uses_anonymous_args = 0
 497              		@ link register save eliminated.
 498              		.loc 1 165 31 is_stmt 0 view .LVU118
 499 0000 0146     		mov	r1, r0
 166:Core/Src/main.c ****     static char str[5];
 500              		.loc 1 166 5 is_stmt 1 view .LVU119
 167:Core/Src/main.c ****     str[0] = num / 1000 + '0';
 501              		.loc 1 167 5 view .LVU120
 502              		.loc 1 167 25 is_stmt 0 view .LVU121
 503 0002 164B     		ldr	r3, .L24
 504 0004 A3FB0023 		umull	r2, r3, r3, r0
 505 0008 9B09     		lsrs	r3, r3, #6
 506 000a 03F13002 		add	r2, r3, #48
 507              		.loc 1 167 12 view .LVU122
 508 000e 1448     		ldr	r0, .L24+4
 509              	.LVL37:
 510              		.loc 1 167 12 view .LVU123
 511 0010 0270     		strb	r2, [r0]
 168:Core/Src/main.c ****     str[1] = (num % 1000) / 100 + '0';
 512              		.loc 1 168 5 is_stmt 1 view .LVU124
 513              		.loc 1 168 33 is_stmt 0 view .LVU125
 514 0012 4FF47A72 		mov	r2, #1000
 515 0016 02FB1312 		mls	r2, r2, r3, r1
 516 001a 92B2     		uxth	r2, r2
 517 001c 114B     		ldr	r3, .L24+8
 518 001e A3FB02C2 		umull	ip, r2, r3, r2
ARM GAS  /var/folders/l2/71_2bdwd5hl5fnnvwg2sr4v80000gn/T//ccJdbVnv.s 			page 13


 519 0022 5209     		lsrs	r2, r2, #5
 520 0024 3032     		adds	r2, r2, #48
 521              		.loc 1 168 12 view .LVU126
 522 0026 4270     		strb	r2, [r0, #1]
 169:Core/Src/main.c ****     str[2] = (num % 100) / 10 + '0';
 523              		.loc 1 169 5 is_stmt 1 view .LVU127
 524              		.loc 1 169 31 is_stmt 0 view .LVU128
 525 0028 A3FB0123 		umull	r2, r3, r3, r1
 526 002c 5B09     		lsrs	r3, r3, #5
 527 002e 6422     		movs	r2, #100
 528 0030 02FB1313 		mls	r3, r2, r3, r1
 529 0034 9BB2     		uxth	r3, r3
 530 0036 0C4A     		ldr	r2, .L24+12
 531 0038 A2FB03C3 		umull	ip, r3, r2, r3
 532 003c DB08     		lsrs	r3, r3, #3
 533 003e 3033     		adds	r3, r3, #48
 534              		.loc 1 169 12 view .LVU129
 535 0040 8370     		strb	r3, [r0, #2]
 170:Core/Src/main.c ****     str[3] = num % 10 + '0';
 536              		.loc 1 170 5 is_stmt 1 view .LVU130
 537              		.loc 1 170 23 is_stmt 0 view .LVU131
 538 0042 A2FB0123 		umull	r2, r3, r2, r1
 539 0046 DB08     		lsrs	r3, r3, #3
 540 0048 03EB8303 		add	r3, r3, r3, lsl #2
 541 004c A1EB4301 		sub	r1, r1, r3, lsl #1
 542 0050 3031     		adds	r1, r1, #48
 543              		.loc 1 170 12 view .LVU132
 544 0052 C170     		strb	r1, [r0, #3]
 171:Core/Src/main.c ****     str[4] = '\0';
 545              		.loc 1 171 5 is_stmt 1 view .LVU133
 546              		.loc 1 171 12 is_stmt 0 view .LVU134
 547 0054 0023     		movs	r3, #0
 548 0056 0371     		strb	r3, [r0, #4]
 172:Core/Src/main.c **** 
 173:Core/Src/main.c ****     return str;
 549              		.loc 1 173 5 is_stmt 1 view .LVU135
 174:Core/Src/main.c **** }
 550              		.loc 1 174 1 is_stmt 0 view .LVU136
 551 0058 7047     		bx	lr
 552              	.L25:
 553 005a 00BF     		.align	2
 554              	.L24:
 555 005c D34D6210 		.word	274877907
 556 0060 00000000 		.word	str.0
 557 0064 1F85EB51 		.word	1374389535
 558 0068 CDCCCCCC 		.word	-858993459
 559              		.cfi_endproc
 560              	.LFE132:
 562              		.section	.text.HAL_UART_TxCpltCallback,"ax",%progbits
 563              		.align	1
 564              		.global	HAL_UART_TxCpltCallback
 565              		.syntax unified
 566              		.thumb
 567              		.thumb_func
 569              	HAL_UART_TxCpltCallback:
 570              	.LVL38:
 571              	.LFB135:
ARM GAS  /var/folders/l2/71_2bdwd5hl5fnnvwg2sr4v80000gn/T//ccJdbVnv.s 			page 14


 175:Core/Src/main.c **** 
 176:Core/Src/main.c **** /* USER CODE END 0 */
 177:Core/Src/main.c **** 
 178:Core/Src/main.c **** /**
 179:Core/Src/main.c ****  * @brief  The application entry point.
 180:Core/Src/main.c ****  * @retval int
 181:Core/Src/main.c ****  */
 182:Core/Src/main.c **** int main(void) {
 183:Core/Src/main.c ****     /* USER CODE BEGIN 1 */
 184:Core/Src/main.c **** 
 185:Core/Src/main.c ****     /* USER CODE END 1 */
 186:Core/Src/main.c **** 
 187:Core/Src/main.c ****     /* MCU
 188:Core/Src/main.c ****      * Configuration--------------------------------------------------------*/
 189:Core/Src/main.c **** 
 190:Core/Src/main.c ****     /* Reset of all peripherals, Initializes the Flash interface and the
 191:Core/Src/main.c ****      * Systick. */
 192:Core/Src/main.c ****     HAL_Init();
 193:Core/Src/main.c **** 
 194:Core/Src/main.c ****     /* USER CODE BEGIN Init */
 195:Core/Src/main.c **** 
 196:Core/Src/main.c ****     /* USER CODE END Init */
 197:Core/Src/main.c **** 
 198:Core/Src/main.c ****     /* Configure the system clock */
 199:Core/Src/main.c ****     SystemClock_Config();
 200:Core/Src/main.c **** 
 201:Core/Src/main.c ****     /* USER CODE BEGIN SysInit */
 202:Core/Src/main.c **** 
 203:Core/Src/main.c ****     /* USER CODE END SysInit */
 204:Core/Src/main.c **** 
 205:Core/Src/main.c ****     /* Initialize all configured peripherals */
 206:Core/Src/main.c ****     MX_GPIO_Init();
 207:Core/Src/main.c ****     MX_DMA_Init();
 208:Core/Src/main.c ****     MX_TIM1_Init();
 209:Core/Src/main.c ****     MX_TIM16_Init();
 210:Core/Src/main.c ****     MX_TIM2_Init();
 211:Core/Src/main.c ****     MX_TIM3_Init();
 212:Core/Src/main.c ****     MX_TIM6_Init();
 213:Core/Src/main.c ****     MX_SPI1_Init();
 214:Core/Src/main.c ****     MX_USART1_UART_Init();
 215:Core/Src/main.c ****     /* USER CODE BEGIN 2 */
 216:Core/Src/main.c ****     setbuf(stdin, NULL);
 217:Core/Src/main.c ****     setbuf(stdout, NULL);
 218:Core/Src/main.c ****     setbuf(stderr, NULL);
 219:Core/Src/main.c ****     dma_printf_init(&huart1);
 220:Core/Src/main.c ****     dma_scanf_init(&huart1);
 221:Core/Src/main.c **** 
 222:Core/Src/main.c ****     // A相
 223:Core/Src/main.c ****     HAL_TIM_PWM_Start(&htim1, TIM_CHANNEL_1);     // H
 224:Core/Src/main.c ****     HAL_TIMEx_PWMN_Start(&htim1, TIM_CHANNEL_1);  // L
 225:Core/Src/main.c **** 
 226:Core/Src/main.c ****     // B相
 227:Core/Src/main.c ****     HAL_TIM_PWM_Start(&htim16, TIM_CHANNEL_1);     // H
 228:Core/Src/main.c ****     HAL_TIMEx_PWMN_Start(&htim16, TIM_CHANNEL_1);  // L
 229:Core/Src/main.c **** 
 230:Core/Src/main.c ****     // C相
 231:Core/Src/main.c ****     HAL_TIM_PWM_Start(&htim3, TIM_CHANNEL_4);     // H
ARM GAS  /var/folders/l2/71_2bdwd5hl5fnnvwg2sr4v80000gn/T//ccJdbVnv.s 			page 15


 232:Core/Src/main.c ****     HAL_TIMEx_PWMN_Start(&htim1, TIM_CHANNEL_3);  // L
 233:Core/Src/main.c **** 
 234:Core/Src/main.c ****     // デバッグ用LED
 235:Core/Src/main.c ****     HAL_TIM_PWM_Start(&htim2, TIM_CHANNEL_1);
 236:Core/Src/main.c **** 
 237:Core/Src/main.c ****     // タイマー用
 238:Core/Src/main.c ****     HAL_TIM_Base_Start(&htim6);
 239:Core/Src/main.c **** 
 240:Core/Src/main.c ****     // DRVOFF
 241:Core/Src/main.c ****     HAL_GPIO_WritePin(GPIOB, GPIO_PIN_1, GPIO_PIN_RESET);
 242:Core/Src/main.c **** 
 243:Core/Src/main.c ****     /* USER CODE END 2 */
 244:Core/Src/main.c **** 
 245:Core/Src/main.c ****     /* Infinite loop */
 246:Core/Src/main.c ****     /* USER CODE BEGIN WHILE */
 247:Core/Src/main.c ****     for (int i = 0; i < 1170; i++) {
 248:Core/Src/main.c ****         cos_table[i] = cos(radians(i * 360.0 / 1170.0));
 249:Core/Src/main.c ****     }
 250:Core/Src/main.c **** 
 251:Core/Src/main.c ****     dma_printf_puts("BLDRV Gen2\r\n");
 252:Core/Src/main.c ****     dma_printf_puts("Calibration Start\r\n");
 253:Core/Src/main.c ****     setPhase(0, 50);
 254:Core/Src/main.c ****     HAL_Delay(500);
 255:Core/Src/main.c **** 
 256:Core/Src/main.c ****     int offset = getRotation();
 257:Core/Src/main.c ****     offset = getRotation();
 258:Core/Src/main.c ****     dma_printf_puts("Offset: ");
 259:Core/Src/main.c ****     dma_printf_puts(uint2char(offset));
 260:Core/Src/main.c ****     dma_printf_puts("\r\n");
 261:Core/Src/main.c ****     dma_printf_puts("Calibration End\r\n");
 262:Core/Src/main.c **** 
 263:Core/Src/main.c ****     while (1) {
 264:Core/Src/main.c ****         /* USER CODE END WHILE */
 265:Core/Src/main.c **** 
 266:Core/Src/main.c ****         /* USER CODE BEGIN 3 */
 267:Core/Src/main.c ****         uint16_t rotation = electrical_angle(offset);
 268:Core/Src/main.c **** 
 269:Core/Src/main.c ****         float vol_q = 8;
 270:Core/Src/main.c ****         float vol_d = 0;
 271:Core/Src/main.c **** 
 272:Core/Src/main.c ****         float vol_alpha = vol_d * cos_table[rotation] -
 273:Core/Src/main.c ****                           vol_q * cos_table[(rotation + 877) % 1170];
 274:Core/Src/main.c **** 
 275:Core/Src/main.c ****         float vol_beta = vol_d * cos_table[(rotation + 877) % 1170] +
 276:Core/Src/main.c ****                          vol_q * cos_table[rotation];
 277:Core/Src/main.c **** 
 278:Core/Src/main.c ****         float vol_u = 0.81649658 * vol_alpha;
 279:Core/Src/main.c ****         float vol_v = -0.40824829 * vol_alpha + 0.707106781 * vol_beta;
 280:Core/Src/main.c ****         float vol_w = -0.40824829 * vol_alpha - 0.707106781 * vol_beta;
 281:Core/Src/main.c **** 
 282:Core/Src/main.c ****         setVoltage(vol_u, vol_v, vol_w);
 283:Core/Src/main.c **** 
 284:Core/Src/main.c ****         // dma_printf_puts("Angle: ");
 285:Core/Src/main.c ****         // dma_printf_puts(uint2char(rotation));
 286:Core/Src/main.c ****         // dma_printf_puts("\r\n");
 287:Core/Src/main.c ****     }
 288:Core/Src/main.c ****     /* USER CODE END 3 */
ARM GAS  /var/folders/l2/71_2bdwd5hl5fnnvwg2sr4v80000gn/T//ccJdbVnv.s 			page 16


 289:Core/Src/main.c **** }
 290:Core/Src/main.c **** 
 291:Core/Src/main.c **** /**
 292:Core/Src/main.c ****  * @brief System Clock Configuration
 293:Core/Src/main.c ****  * @retval None
 294:Core/Src/main.c ****  */
 295:Core/Src/main.c **** void SystemClock_Config(void) {
 296:Core/Src/main.c ****     RCC_OscInitTypeDef RCC_OscInitStruct = {0};
 297:Core/Src/main.c ****     RCC_ClkInitTypeDef RCC_ClkInitStruct = {0};
 298:Core/Src/main.c ****     RCC_PeriphCLKInitTypeDef PeriphClkInit = {0};
 299:Core/Src/main.c **** 
 300:Core/Src/main.c ****     /** Initializes the RCC Oscillators according to the specified parameters
 301:Core/Src/main.c ****      * in the RCC_OscInitTypeDef structure.
 302:Core/Src/main.c ****      */
 303:Core/Src/main.c ****     RCC_OscInitStruct.OscillatorType = RCC_OSCILLATORTYPE_HSI;
 304:Core/Src/main.c ****     RCC_OscInitStruct.HSIState = RCC_HSI_ON;
 305:Core/Src/main.c ****     RCC_OscInitStruct.HSICalibrationValue = RCC_HSICALIBRATION_DEFAULT;
 306:Core/Src/main.c ****     RCC_OscInitStruct.PLL.PLLState = RCC_PLL_ON;
 307:Core/Src/main.c ****     RCC_OscInitStruct.PLL.PLLSource = RCC_PLLSOURCE_HSI;
 308:Core/Src/main.c ****     RCC_OscInitStruct.PLL.PLLMUL = RCC_PLL_MUL8;
 309:Core/Src/main.c ****     if (HAL_RCC_OscConfig(&RCC_OscInitStruct) != HAL_OK) {
 310:Core/Src/main.c ****         Error_Handler();
 311:Core/Src/main.c ****     }
 312:Core/Src/main.c **** 
 313:Core/Src/main.c ****     /** Initializes the CPU, AHB and APB buses clocks
 314:Core/Src/main.c ****      */
 315:Core/Src/main.c ****     RCC_ClkInitStruct.ClockType = RCC_CLOCKTYPE_HCLK | RCC_CLOCKTYPE_SYSCLK |
 316:Core/Src/main.c ****                                   RCC_CLOCKTYPE_PCLK1 | RCC_CLOCKTYPE_PCLK2;
 317:Core/Src/main.c ****     RCC_ClkInitStruct.SYSCLKSource = RCC_SYSCLKSOURCE_PLLCLK;
 318:Core/Src/main.c ****     RCC_ClkInitStruct.AHBCLKDivider = RCC_SYSCLK_DIV1;
 319:Core/Src/main.c ****     RCC_ClkInitStruct.APB1CLKDivider = RCC_HCLK_DIV1;
 320:Core/Src/main.c ****     RCC_ClkInitStruct.APB2CLKDivider = RCC_HCLK_DIV1;
 321:Core/Src/main.c **** 
 322:Core/Src/main.c ****     if (HAL_RCC_ClockConfig(&RCC_ClkInitStruct, FLASH_LATENCY_1) != HAL_OK) {
 323:Core/Src/main.c ****         Error_Handler();
 324:Core/Src/main.c ****     }
 325:Core/Src/main.c ****     PeriphClkInit.PeriphClockSelection =
 326:Core/Src/main.c ****         RCC_PERIPHCLK_USART1 | RCC_PERIPHCLK_TIM1;
 327:Core/Src/main.c ****     PeriphClkInit.Usart1ClockSelection = RCC_USART1CLKSOURCE_PCLK1;
 328:Core/Src/main.c ****     PeriphClkInit.Tim1ClockSelection = RCC_TIM1CLK_HCLK;
 329:Core/Src/main.c ****     if (HAL_RCCEx_PeriphCLKConfig(&PeriphClkInit) != HAL_OK) {
 330:Core/Src/main.c ****         Error_Handler();
 331:Core/Src/main.c ****     }
 332:Core/Src/main.c **** }
 333:Core/Src/main.c **** 
 334:Core/Src/main.c **** /* USER CODE BEGIN 4 */
 335:Core/Src/main.c **** void HAL_UART_TxCpltCallback(UART_HandleTypeDef *huart) {
 572              		.loc 1 335 57 is_stmt 1 view -0
 573              		.cfi_startproc
 574              		@ args = 0, pretend = 0, frame = 0
 575              		@ frame_needed = 0, uses_anonymous_args = 0
 576              		.loc 1 335 57 is_stmt 0 view .LVU138
 577 0000 08B5     		push	{r3, lr}
 578              	.LCFI8:
 579              		.cfi_def_cfa_offset 8
 580              		.cfi_offset 3, -8
 581              		.cfi_offset 14, -4
ARM GAS  /var/folders/l2/71_2bdwd5hl5fnnvwg2sr4v80000gn/T//ccJdbVnv.s 			page 17


 336:Core/Src/main.c ****     dma_printf_send_it(huart);
 582              		.loc 1 336 5 is_stmt 1 view .LVU139
 583 0002 FFF7FEFF 		bl	dma_printf_send_it
 584              	.LVL39:
 337:Core/Src/main.c **** }
 585              		.loc 1 337 1 is_stmt 0 view .LVU140
 586 0006 08BD     		pop	{r3, pc}
 587              		.cfi_endproc
 588              	.LFE135:
 590              		.section	.text.__io_putchar,"ax",%progbits
 591              		.align	1
 592              		.global	__io_putchar
 593              		.syntax unified
 594              		.thumb
 595              		.thumb_func
 597              	__io_putchar:
 598              	.LVL40:
 599              	.LFB136:
 338:Core/Src/main.c **** int __io_putchar(int ch) {
 600              		.loc 1 338 26 is_stmt 1 view -0
 601              		.cfi_startproc
 602              		@ args = 0, pretend = 0, frame = 0
 603              		@ frame_needed = 0, uses_anonymous_args = 0
 604              		.loc 1 338 26 is_stmt 0 view .LVU142
 605 0000 10B5     		push	{r4, lr}
 606              	.LCFI9:
 607              		.cfi_def_cfa_offset 8
 608              		.cfi_offset 4, -8
 609              		.cfi_offset 14, -4
 610 0002 0446     		mov	r4, r0
 339:Core/Src/main.c ****     dma_printf_putc(ch & 0xFF);
 611              		.loc 1 339 5 is_stmt 1 view .LVU143
 612 0004 C0B2     		uxtb	r0, r0
 613              	.LVL41:
 614              		.loc 1 339 5 is_stmt 0 view .LVU144
 615 0006 FFF7FEFF 		bl	dma_printf_putc
 616              	.LVL42:
 340:Core/Src/main.c ****     return ch;
 617              		.loc 1 340 5 is_stmt 1 view .LVU145
 341:Core/Src/main.c **** }
 618              		.loc 1 341 1 is_stmt 0 view .LVU146
 619 000a 2046     		mov	r0, r4
 620 000c 10BD     		pop	{r4, pc}
 621              		.loc 1 341 1 view .LVU147
 622              		.cfi_endproc
 623              	.LFE136:
 625              		.section	.text.__io_getchar,"ax",%progbits
 626              		.align	1
 627              		.global	__io_getchar
 628              		.syntax unified
 629              		.thumb
 630              		.thumb_func
 632              	__io_getchar:
 633              	.LFB137:
 342:Core/Src/main.c **** 
 343:Core/Src/main.c **** int __io_getchar(void) {
 634              		.loc 1 343 24 is_stmt 1 view -0
ARM GAS  /var/folders/l2/71_2bdwd5hl5fnnvwg2sr4v80000gn/T//ccJdbVnv.s 			page 18


 635              		.cfi_startproc
 636              		@ args = 0, pretend = 0, frame = 0
 637              		@ frame_needed = 0, uses_anonymous_args = 0
 638 0000 08B5     		push	{r3, lr}
 639              	.LCFI10:
 640              		.cfi_def_cfa_offset 8
 641              		.cfi_offset 3, -8
 642              		.cfi_offset 14, -4
 344:Core/Src/main.c ****     return dma_scanf_getc_blocking();
 643              		.loc 1 344 5 view .LVU149
 644              		.loc 1 344 12 is_stmt 0 view .LVU150
 645 0002 FFF7FEFF 		bl	dma_scanf_getc_blocking
 646              	.LVL43:
 345:Core/Src/main.c **** }
 647              		.loc 1 345 1 view .LVU151
 648 0006 08BD     		pop	{r3, pc}
 649              		.cfi_endproc
 650              	.LFE137:
 652              		.section	.text.Error_Handler,"ax",%progbits
 653              		.align	1
 654              		.global	Error_Handler
 655              		.syntax unified
 656              		.thumb
 657              		.thumb_func
 659              	Error_Handler:
 660              	.LFB138:
 346:Core/Src/main.c **** 
 347:Core/Src/main.c **** /* USER CODE END 4 */
 348:Core/Src/main.c **** 
 349:Core/Src/main.c **** /**
 350:Core/Src/main.c ****  * @brief  This function is executed in case of error occurrence.
 351:Core/Src/main.c ****  * @retval None
 352:Core/Src/main.c ****  */
 353:Core/Src/main.c **** void Error_Handler(void) {
 661              		.loc 1 353 26 is_stmt 1 view -0
 662              		.cfi_startproc
 663              		@ Volatile: function does not return.
 664              		@ args = 0, pretend = 0, frame = 0
 665              		@ frame_needed = 0, uses_anonymous_args = 0
 666              		@ link register save eliminated.
 354:Core/Src/main.c ****     /* USER CODE BEGIN Error_Handler_Debug */
 355:Core/Src/main.c ****     /* User can add his own implementation to report the HAL error return state
 356:Core/Src/main.c ****      */
 357:Core/Src/main.c ****     __disable_irq();
 667              		.loc 1 357 5 view .LVU153
 668              	.LBB6:
 669              	.LBI6:
 670              		.file 2 "Drivers/CMSIS/Include/cmsis_gcc.h"
   1:Drivers/CMSIS/Include/cmsis_gcc.h **** /**************************************************************************//**
   2:Drivers/CMSIS/Include/cmsis_gcc.h ****  * @file     cmsis_gcc.h
   3:Drivers/CMSIS/Include/cmsis_gcc.h ****  * @brief    CMSIS compiler GCC header file
   4:Drivers/CMSIS/Include/cmsis_gcc.h ****  * @version  V5.0.4
   5:Drivers/CMSIS/Include/cmsis_gcc.h ****  * @date     09. April 2018
   6:Drivers/CMSIS/Include/cmsis_gcc.h ****  ******************************************************************************/
   7:Drivers/CMSIS/Include/cmsis_gcc.h **** /*
   8:Drivers/CMSIS/Include/cmsis_gcc.h ****  * Copyright (c) 2009-2018 Arm Limited. All rights reserved.
   9:Drivers/CMSIS/Include/cmsis_gcc.h ****  *
ARM GAS  /var/folders/l2/71_2bdwd5hl5fnnvwg2sr4v80000gn/T//ccJdbVnv.s 			page 19


  10:Drivers/CMSIS/Include/cmsis_gcc.h ****  * SPDX-License-Identifier: Apache-2.0
  11:Drivers/CMSIS/Include/cmsis_gcc.h ****  *
  12:Drivers/CMSIS/Include/cmsis_gcc.h ****  * Licensed under the Apache License, Version 2.0 (the License); you may
  13:Drivers/CMSIS/Include/cmsis_gcc.h ****  * not use this file except in compliance with the License.
  14:Drivers/CMSIS/Include/cmsis_gcc.h ****  * You may obtain a copy of the License at
  15:Drivers/CMSIS/Include/cmsis_gcc.h ****  *
  16:Drivers/CMSIS/Include/cmsis_gcc.h ****  * www.apache.org/licenses/LICENSE-2.0
  17:Drivers/CMSIS/Include/cmsis_gcc.h ****  *
  18:Drivers/CMSIS/Include/cmsis_gcc.h ****  * Unless required by applicable law or agreed to in writing, software
  19:Drivers/CMSIS/Include/cmsis_gcc.h ****  * distributed under the License is distributed on an AS IS BASIS, WITHOUT
  20:Drivers/CMSIS/Include/cmsis_gcc.h ****  * WARRANTIES OR CONDITIONS OF ANY KIND, either express or implied.
  21:Drivers/CMSIS/Include/cmsis_gcc.h ****  * See the License for the specific language governing permissions and
  22:Drivers/CMSIS/Include/cmsis_gcc.h ****  * limitations under the License.
  23:Drivers/CMSIS/Include/cmsis_gcc.h ****  */
  24:Drivers/CMSIS/Include/cmsis_gcc.h **** 
  25:Drivers/CMSIS/Include/cmsis_gcc.h **** #ifndef __CMSIS_GCC_H
  26:Drivers/CMSIS/Include/cmsis_gcc.h **** #define __CMSIS_GCC_H
  27:Drivers/CMSIS/Include/cmsis_gcc.h **** 
  28:Drivers/CMSIS/Include/cmsis_gcc.h **** /* ignore some GCC warnings */
  29:Drivers/CMSIS/Include/cmsis_gcc.h **** #pragma GCC diagnostic push
  30:Drivers/CMSIS/Include/cmsis_gcc.h **** #pragma GCC diagnostic ignored "-Wsign-conversion"
  31:Drivers/CMSIS/Include/cmsis_gcc.h **** #pragma GCC diagnostic ignored "-Wconversion"
  32:Drivers/CMSIS/Include/cmsis_gcc.h **** #pragma GCC diagnostic ignored "-Wunused-parameter"
  33:Drivers/CMSIS/Include/cmsis_gcc.h **** 
  34:Drivers/CMSIS/Include/cmsis_gcc.h **** /* Fallback for __has_builtin */
  35:Drivers/CMSIS/Include/cmsis_gcc.h **** #ifndef __has_builtin
  36:Drivers/CMSIS/Include/cmsis_gcc.h ****   #define __has_builtin(x) (0)
  37:Drivers/CMSIS/Include/cmsis_gcc.h **** #endif
  38:Drivers/CMSIS/Include/cmsis_gcc.h **** 
  39:Drivers/CMSIS/Include/cmsis_gcc.h **** /* CMSIS compiler specific defines */
  40:Drivers/CMSIS/Include/cmsis_gcc.h **** #ifndef   __ASM
  41:Drivers/CMSIS/Include/cmsis_gcc.h ****   #define __ASM                                  __asm
  42:Drivers/CMSIS/Include/cmsis_gcc.h **** #endif
  43:Drivers/CMSIS/Include/cmsis_gcc.h **** #ifndef   __INLINE
  44:Drivers/CMSIS/Include/cmsis_gcc.h ****   #define __INLINE                               inline
  45:Drivers/CMSIS/Include/cmsis_gcc.h **** #endif
  46:Drivers/CMSIS/Include/cmsis_gcc.h **** #ifndef   __STATIC_INLINE
  47:Drivers/CMSIS/Include/cmsis_gcc.h ****   #define __STATIC_INLINE                        static inline
  48:Drivers/CMSIS/Include/cmsis_gcc.h **** #endif
  49:Drivers/CMSIS/Include/cmsis_gcc.h **** #ifndef   __STATIC_FORCEINLINE                 
  50:Drivers/CMSIS/Include/cmsis_gcc.h ****   #define __STATIC_FORCEINLINE                   __attribute__((always_inline)) static inline
  51:Drivers/CMSIS/Include/cmsis_gcc.h **** #endif                                           
  52:Drivers/CMSIS/Include/cmsis_gcc.h **** #ifndef   __NO_RETURN
  53:Drivers/CMSIS/Include/cmsis_gcc.h ****   #define __NO_RETURN                            __attribute__((__noreturn__))
  54:Drivers/CMSIS/Include/cmsis_gcc.h **** #endif
  55:Drivers/CMSIS/Include/cmsis_gcc.h **** #ifndef   __USED
  56:Drivers/CMSIS/Include/cmsis_gcc.h ****   #define __USED                                 __attribute__((used))
  57:Drivers/CMSIS/Include/cmsis_gcc.h **** #endif
  58:Drivers/CMSIS/Include/cmsis_gcc.h **** #ifndef   __WEAK
  59:Drivers/CMSIS/Include/cmsis_gcc.h ****   #define __WEAK                                 __attribute__((weak))
  60:Drivers/CMSIS/Include/cmsis_gcc.h **** #endif
  61:Drivers/CMSIS/Include/cmsis_gcc.h **** #ifndef   __PACKED
  62:Drivers/CMSIS/Include/cmsis_gcc.h ****   #define __PACKED                               __attribute__((packed, aligned(1)))
  63:Drivers/CMSIS/Include/cmsis_gcc.h **** #endif
  64:Drivers/CMSIS/Include/cmsis_gcc.h **** #ifndef   __PACKED_STRUCT
  65:Drivers/CMSIS/Include/cmsis_gcc.h ****   #define __PACKED_STRUCT                        struct __attribute__((packed, aligned(1)))
  66:Drivers/CMSIS/Include/cmsis_gcc.h **** #endif
ARM GAS  /var/folders/l2/71_2bdwd5hl5fnnvwg2sr4v80000gn/T//ccJdbVnv.s 			page 20


  67:Drivers/CMSIS/Include/cmsis_gcc.h **** #ifndef   __PACKED_UNION
  68:Drivers/CMSIS/Include/cmsis_gcc.h ****   #define __PACKED_UNION                         union __attribute__((packed, aligned(1)))
  69:Drivers/CMSIS/Include/cmsis_gcc.h **** #endif
  70:Drivers/CMSIS/Include/cmsis_gcc.h **** #ifndef   __UNALIGNED_UINT32        /* deprecated */
  71:Drivers/CMSIS/Include/cmsis_gcc.h ****   #pragma GCC diagnostic push
  72:Drivers/CMSIS/Include/cmsis_gcc.h ****   #pragma GCC diagnostic ignored "-Wpacked"
  73:Drivers/CMSIS/Include/cmsis_gcc.h ****   #pragma GCC diagnostic ignored "-Wattributes"
  74:Drivers/CMSIS/Include/cmsis_gcc.h ****   struct __attribute__((packed)) T_UINT32 { uint32_t v; };
  75:Drivers/CMSIS/Include/cmsis_gcc.h ****   #pragma GCC diagnostic pop
  76:Drivers/CMSIS/Include/cmsis_gcc.h ****   #define __UNALIGNED_UINT32(x)                  (((struct T_UINT32 *)(x))->v)
  77:Drivers/CMSIS/Include/cmsis_gcc.h **** #endif
  78:Drivers/CMSIS/Include/cmsis_gcc.h **** #ifndef   __UNALIGNED_UINT16_WRITE
  79:Drivers/CMSIS/Include/cmsis_gcc.h ****   #pragma GCC diagnostic push
  80:Drivers/CMSIS/Include/cmsis_gcc.h ****   #pragma GCC diagnostic ignored "-Wpacked"
  81:Drivers/CMSIS/Include/cmsis_gcc.h ****   #pragma GCC diagnostic ignored "-Wattributes"
  82:Drivers/CMSIS/Include/cmsis_gcc.h ****   __PACKED_STRUCT T_UINT16_WRITE { uint16_t v; };
  83:Drivers/CMSIS/Include/cmsis_gcc.h ****   #pragma GCC diagnostic pop
  84:Drivers/CMSIS/Include/cmsis_gcc.h ****   #define __UNALIGNED_UINT16_WRITE(addr, val)    (void)((((struct T_UINT16_WRITE *)(void *)(addr))-
  85:Drivers/CMSIS/Include/cmsis_gcc.h **** #endif
  86:Drivers/CMSIS/Include/cmsis_gcc.h **** #ifndef   __UNALIGNED_UINT16_READ
  87:Drivers/CMSIS/Include/cmsis_gcc.h ****   #pragma GCC diagnostic push
  88:Drivers/CMSIS/Include/cmsis_gcc.h ****   #pragma GCC diagnostic ignored "-Wpacked"
  89:Drivers/CMSIS/Include/cmsis_gcc.h ****   #pragma GCC diagnostic ignored "-Wattributes"
  90:Drivers/CMSIS/Include/cmsis_gcc.h ****   __PACKED_STRUCT T_UINT16_READ { uint16_t v; };
  91:Drivers/CMSIS/Include/cmsis_gcc.h ****   #pragma GCC diagnostic pop
  92:Drivers/CMSIS/Include/cmsis_gcc.h ****   #define __UNALIGNED_UINT16_READ(addr)          (((const struct T_UINT16_READ *)(const void *)(add
  93:Drivers/CMSIS/Include/cmsis_gcc.h **** #endif
  94:Drivers/CMSIS/Include/cmsis_gcc.h **** #ifndef   __UNALIGNED_UINT32_WRITE
  95:Drivers/CMSIS/Include/cmsis_gcc.h ****   #pragma GCC diagnostic push
  96:Drivers/CMSIS/Include/cmsis_gcc.h ****   #pragma GCC diagnostic ignored "-Wpacked"
  97:Drivers/CMSIS/Include/cmsis_gcc.h ****   #pragma GCC diagnostic ignored "-Wattributes"
  98:Drivers/CMSIS/Include/cmsis_gcc.h ****   __PACKED_STRUCT T_UINT32_WRITE { uint32_t v; };
  99:Drivers/CMSIS/Include/cmsis_gcc.h ****   #pragma GCC diagnostic pop
 100:Drivers/CMSIS/Include/cmsis_gcc.h ****   #define __UNALIGNED_UINT32_WRITE(addr, val)    (void)((((struct T_UINT32_WRITE *)(void *)(addr))-
 101:Drivers/CMSIS/Include/cmsis_gcc.h **** #endif
 102:Drivers/CMSIS/Include/cmsis_gcc.h **** #ifndef   __UNALIGNED_UINT32_READ
 103:Drivers/CMSIS/Include/cmsis_gcc.h ****   #pragma GCC diagnostic push
 104:Drivers/CMSIS/Include/cmsis_gcc.h ****   #pragma GCC diagnostic ignored "-Wpacked"
 105:Drivers/CMSIS/Include/cmsis_gcc.h ****   #pragma GCC diagnostic ignored "-Wattributes"
 106:Drivers/CMSIS/Include/cmsis_gcc.h ****   __PACKED_STRUCT T_UINT32_READ { uint32_t v; };
 107:Drivers/CMSIS/Include/cmsis_gcc.h ****   #pragma GCC diagnostic pop
 108:Drivers/CMSIS/Include/cmsis_gcc.h ****   #define __UNALIGNED_UINT32_READ(addr)          (((const struct T_UINT32_READ *)(const void *)(add
 109:Drivers/CMSIS/Include/cmsis_gcc.h **** #endif
 110:Drivers/CMSIS/Include/cmsis_gcc.h **** #ifndef   __ALIGNED
 111:Drivers/CMSIS/Include/cmsis_gcc.h ****   #define __ALIGNED(x)                           __attribute__((aligned(x)))
 112:Drivers/CMSIS/Include/cmsis_gcc.h **** #endif
 113:Drivers/CMSIS/Include/cmsis_gcc.h **** #ifndef   __RESTRICT
 114:Drivers/CMSIS/Include/cmsis_gcc.h ****   #define __RESTRICT                             __restrict
 115:Drivers/CMSIS/Include/cmsis_gcc.h **** #endif
 116:Drivers/CMSIS/Include/cmsis_gcc.h **** 
 117:Drivers/CMSIS/Include/cmsis_gcc.h **** 
 118:Drivers/CMSIS/Include/cmsis_gcc.h **** /* ###########################  Core Function Access  ########################### */
 119:Drivers/CMSIS/Include/cmsis_gcc.h **** /** \ingroup  CMSIS_Core_FunctionInterface
 120:Drivers/CMSIS/Include/cmsis_gcc.h ****     \defgroup CMSIS_Core_RegAccFunctions CMSIS Core Register Access Functions
 121:Drivers/CMSIS/Include/cmsis_gcc.h ****   @{
 122:Drivers/CMSIS/Include/cmsis_gcc.h ****  */
 123:Drivers/CMSIS/Include/cmsis_gcc.h **** 
ARM GAS  /var/folders/l2/71_2bdwd5hl5fnnvwg2sr4v80000gn/T//ccJdbVnv.s 			page 21


 124:Drivers/CMSIS/Include/cmsis_gcc.h **** /**
 125:Drivers/CMSIS/Include/cmsis_gcc.h ****   \brief   Enable IRQ Interrupts
 126:Drivers/CMSIS/Include/cmsis_gcc.h ****   \details Enables IRQ interrupts by clearing the I-bit in the CPSR.
 127:Drivers/CMSIS/Include/cmsis_gcc.h ****            Can only be executed in Privileged modes.
 128:Drivers/CMSIS/Include/cmsis_gcc.h ****  */
 129:Drivers/CMSIS/Include/cmsis_gcc.h **** __STATIC_FORCEINLINE void __enable_irq(void)
 130:Drivers/CMSIS/Include/cmsis_gcc.h **** {
 131:Drivers/CMSIS/Include/cmsis_gcc.h ****   __ASM volatile ("cpsie i" : : : "memory");
 132:Drivers/CMSIS/Include/cmsis_gcc.h **** }
 133:Drivers/CMSIS/Include/cmsis_gcc.h **** 
 134:Drivers/CMSIS/Include/cmsis_gcc.h **** 
 135:Drivers/CMSIS/Include/cmsis_gcc.h **** /**
 136:Drivers/CMSIS/Include/cmsis_gcc.h ****   \brief   Disable IRQ Interrupts
 137:Drivers/CMSIS/Include/cmsis_gcc.h ****   \details Disables IRQ interrupts by setting the I-bit in the CPSR.
 138:Drivers/CMSIS/Include/cmsis_gcc.h ****            Can only be executed in Privileged modes.
 139:Drivers/CMSIS/Include/cmsis_gcc.h ****  */
 140:Drivers/CMSIS/Include/cmsis_gcc.h **** __STATIC_FORCEINLINE void __disable_irq(void)
 671              		.loc 2 140 27 view .LVU154
 672              	.LBB7:
 141:Drivers/CMSIS/Include/cmsis_gcc.h **** {
 142:Drivers/CMSIS/Include/cmsis_gcc.h ****   __ASM volatile ("cpsid i" : : : "memory");
 673              		.loc 2 142 3 view .LVU155
 674              		.syntax unified
 675              	@ 142 "Drivers/CMSIS/Include/cmsis_gcc.h" 1
 676 0000 72B6     		cpsid i
 677              	@ 0 "" 2
 678              		.thumb
 679              		.syntax unified
 680              	.L33:
 681              	.LBE7:
 682              	.LBE6:
 358:Core/Src/main.c ****     while (1) {
 683              		.loc 1 358 5 discriminator 1 view .LVU156
 359:Core/Src/main.c ****     }
 684              		.loc 1 359 5 discriminator 1 view .LVU157
 358:Core/Src/main.c ****     while (1) {
 685              		.loc 1 358 11 discriminator 1 view .LVU158
 686 0002 FEE7     		b	.L33
 687              		.cfi_endproc
 688              	.LFE138:
 690              		.section	.text.SystemClock_Config,"ax",%progbits
 691              		.align	1
 692              		.global	SystemClock_Config
 693              		.syntax unified
 694              		.thumb
 695              		.thumb_func
 697              	SystemClock_Config:
 698              	.LFB134:
 295:Core/Src/main.c ****     RCC_OscInitTypeDef RCC_OscInitStruct = {0};
 699              		.loc 1 295 31 view -0
 700              		.cfi_startproc
 701              		@ args = 0, pretend = 0, frame = 88
 702              		@ frame_needed = 0, uses_anonymous_args = 0
 703 0000 00B5     		push	{lr}
 704              	.LCFI11:
 705              		.cfi_def_cfa_offset 4
 706              		.cfi_offset 14, -4
ARM GAS  /var/folders/l2/71_2bdwd5hl5fnnvwg2sr4v80000gn/T//ccJdbVnv.s 			page 22


 707 0002 97B0     		sub	sp, sp, #92
 708              	.LCFI12:
 709              		.cfi_def_cfa_offset 96
 296:Core/Src/main.c ****     RCC_ClkInitTypeDef RCC_ClkInitStruct = {0};
 710              		.loc 1 296 5 view .LVU160
 296:Core/Src/main.c ****     RCC_ClkInitTypeDef RCC_ClkInitStruct = {0};
 711              		.loc 1 296 24 is_stmt 0 view .LVU161
 712 0004 2822     		movs	r2, #40
 713 0006 0021     		movs	r1, #0
 714 0008 0CA8     		add	r0, sp, #48
 715 000a FFF7FEFF 		bl	memset
 716              	.LVL44:
 297:Core/Src/main.c ****     RCC_PeriphCLKInitTypeDef PeriphClkInit = {0};
 717              		.loc 1 297 5 is_stmt 1 view .LVU162
 297:Core/Src/main.c ****     RCC_PeriphCLKInitTypeDef PeriphClkInit = {0};
 718              		.loc 1 297 24 is_stmt 0 view .LVU163
 719 000e 0023     		movs	r3, #0
 720 0010 0793     		str	r3, [sp, #28]
 721 0012 0893     		str	r3, [sp, #32]
 722 0014 0993     		str	r3, [sp, #36]
 723 0016 0A93     		str	r3, [sp, #40]
 724 0018 0B93     		str	r3, [sp, #44]
 298:Core/Src/main.c **** 
 725              		.loc 1 298 5 is_stmt 1 view .LVU164
 298:Core/Src/main.c **** 
 726              		.loc 1 298 30 is_stmt 0 view .LVU165
 727 001a 0193     		str	r3, [sp, #4]
 728 001c 0293     		str	r3, [sp, #8]
 729 001e 0393     		str	r3, [sp, #12]
 730 0020 0493     		str	r3, [sp, #16]
 731 0022 0593     		str	r3, [sp, #20]
 732 0024 0693     		str	r3, [sp, #24]
 303:Core/Src/main.c ****     RCC_OscInitStruct.HSIState = RCC_HSI_ON;
 733              		.loc 1 303 5 is_stmt 1 view .LVU166
 303:Core/Src/main.c ****     RCC_OscInitStruct.HSIState = RCC_HSI_ON;
 734              		.loc 1 303 38 is_stmt 0 view .LVU167
 735 0026 0223     		movs	r3, #2
 736 0028 0C93     		str	r3, [sp, #48]
 304:Core/Src/main.c ****     RCC_OscInitStruct.HSICalibrationValue = RCC_HSICALIBRATION_DEFAULT;
 737              		.loc 1 304 5 is_stmt 1 view .LVU168
 304:Core/Src/main.c ****     RCC_OscInitStruct.HSICalibrationValue = RCC_HSICALIBRATION_DEFAULT;
 738              		.loc 1 304 32 is_stmt 0 view .LVU169
 739 002a 0122     		movs	r2, #1
 740 002c 1092     		str	r2, [sp, #64]
 305:Core/Src/main.c ****     RCC_OscInitStruct.PLL.PLLState = RCC_PLL_ON;
 741              		.loc 1 305 5 is_stmt 1 view .LVU170
 305:Core/Src/main.c ****     RCC_OscInitStruct.PLL.PLLState = RCC_PLL_ON;
 742              		.loc 1 305 43 is_stmt 0 view .LVU171
 743 002e 1022     		movs	r2, #16
 744 0030 1192     		str	r2, [sp, #68]
 306:Core/Src/main.c ****     RCC_OscInitStruct.PLL.PLLSource = RCC_PLLSOURCE_HSI;
 745              		.loc 1 306 5 is_stmt 1 view .LVU172
 306:Core/Src/main.c ****     RCC_OscInitStruct.PLL.PLLSource = RCC_PLLSOURCE_HSI;
 746              		.loc 1 306 36 is_stmt 0 view .LVU173
 747 0032 1393     		str	r3, [sp, #76]
 307:Core/Src/main.c ****     RCC_OscInitStruct.PLL.PLLMUL = RCC_PLL_MUL8;
 748              		.loc 1 307 5 is_stmt 1 view .LVU174
ARM GAS  /var/folders/l2/71_2bdwd5hl5fnnvwg2sr4v80000gn/T//ccJdbVnv.s 			page 23


 308:Core/Src/main.c ****     if (HAL_RCC_OscConfig(&RCC_OscInitStruct) != HAL_OK) {
 749              		.loc 1 308 5 view .LVU175
 308:Core/Src/main.c ****     if (HAL_RCC_OscConfig(&RCC_OscInitStruct) != HAL_OK) {
 750              		.loc 1 308 34 is_stmt 0 view .LVU176
 751 0034 4FF4C013 		mov	r3, #1572864
 752 0038 1593     		str	r3, [sp, #84]
 309:Core/Src/main.c ****         Error_Handler();
 753              		.loc 1 309 5 is_stmt 1 view .LVU177
 309:Core/Src/main.c ****         Error_Handler();
 754              		.loc 1 309 9 is_stmt 0 view .LVU178
 755 003a 0CA8     		add	r0, sp, #48
 756 003c FFF7FEFF 		bl	HAL_RCC_OscConfig
 757              	.LVL45:
 309:Core/Src/main.c ****         Error_Handler();
 758              		.loc 1 309 8 view .LVU179
 759 0040 C8B9     		cbnz	r0, .L39
 315:Core/Src/main.c ****                                   RCC_CLOCKTYPE_PCLK1 | RCC_CLOCKTYPE_PCLK2;
 760              		.loc 1 315 5 is_stmt 1 view .LVU180
 315:Core/Src/main.c ****                                   RCC_CLOCKTYPE_PCLK1 | RCC_CLOCKTYPE_PCLK2;
 761              		.loc 1 315 33 is_stmt 0 view .LVU181
 762 0042 0F23     		movs	r3, #15
 763 0044 0793     		str	r3, [sp, #28]
 317:Core/Src/main.c ****     RCC_ClkInitStruct.AHBCLKDivider = RCC_SYSCLK_DIV1;
 764              		.loc 1 317 5 is_stmt 1 view .LVU182
 317:Core/Src/main.c ****     RCC_ClkInitStruct.AHBCLKDivider = RCC_SYSCLK_DIV1;
 765              		.loc 1 317 36 is_stmt 0 view .LVU183
 766 0046 0223     		movs	r3, #2
 767 0048 0893     		str	r3, [sp, #32]
 318:Core/Src/main.c ****     RCC_ClkInitStruct.APB1CLKDivider = RCC_HCLK_DIV1;
 768              		.loc 1 318 5 is_stmt 1 view .LVU184
 318:Core/Src/main.c ****     RCC_ClkInitStruct.APB1CLKDivider = RCC_HCLK_DIV1;
 769              		.loc 1 318 37 is_stmt 0 view .LVU185
 770 004a 0023     		movs	r3, #0
 771 004c 0993     		str	r3, [sp, #36]
 319:Core/Src/main.c ****     RCC_ClkInitStruct.APB2CLKDivider = RCC_HCLK_DIV1;
 772              		.loc 1 319 5 is_stmt 1 view .LVU186
 319:Core/Src/main.c ****     RCC_ClkInitStruct.APB2CLKDivider = RCC_HCLK_DIV1;
 773              		.loc 1 319 38 is_stmt 0 view .LVU187
 774 004e 0A93     		str	r3, [sp, #40]
 320:Core/Src/main.c **** 
 775              		.loc 1 320 5 is_stmt 1 view .LVU188
 320:Core/Src/main.c **** 
 776              		.loc 1 320 38 is_stmt 0 view .LVU189
 777 0050 0B93     		str	r3, [sp, #44]
 322:Core/Src/main.c ****         Error_Handler();
 778              		.loc 1 322 5 is_stmt 1 view .LVU190
 322:Core/Src/main.c ****         Error_Handler();
 779              		.loc 1 322 9 is_stmt 0 view .LVU191
 780 0052 0121     		movs	r1, #1
 781 0054 07A8     		add	r0, sp, #28
 782 0056 FFF7FEFF 		bl	HAL_RCC_ClockConfig
 783              	.LVL46:
 322:Core/Src/main.c ****         Error_Handler();
 784              		.loc 1 322 8 view .LVU192
 785 005a 70B9     		cbnz	r0, .L40
 325:Core/Src/main.c ****         RCC_PERIPHCLK_USART1 | RCC_PERIPHCLK_TIM1;
 786              		.loc 1 325 5 is_stmt 1 view .LVU193
ARM GAS  /var/folders/l2/71_2bdwd5hl5fnnvwg2sr4v80000gn/T//ccJdbVnv.s 			page 24


 325:Core/Src/main.c ****         RCC_PERIPHCLK_USART1 | RCC_PERIPHCLK_TIM1;
 787              		.loc 1 325 40 is_stmt 0 view .LVU194
 788 005c 41F20103 		movw	r3, #4097
 789 0060 0193     		str	r3, [sp, #4]
 327:Core/Src/main.c ****     PeriphClkInit.Tim1ClockSelection = RCC_TIM1CLK_HCLK;
 790              		.loc 1 327 5 is_stmt 1 view .LVU195
 327:Core/Src/main.c ****     PeriphClkInit.Tim1ClockSelection = RCC_TIM1CLK_HCLK;
 791              		.loc 1 327 40 is_stmt 0 view .LVU196
 792 0062 0023     		movs	r3, #0
 793 0064 0393     		str	r3, [sp, #12]
 328:Core/Src/main.c ****     if (HAL_RCCEx_PeriphCLKConfig(&PeriphClkInit) != HAL_OK) {
 794              		.loc 1 328 5 is_stmt 1 view .LVU197
 328:Core/Src/main.c ****     if (HAL_RCCEx_PeriphCLKConfig(&PeriphClkInit) != HAL_OK) {
 795              		.loc 1 328 38 is_stmt 0 view .LVU198
 796 0066 0693     		str	r3, [sp, #24]
 329:Core/Src/main.c ****         Error_Handler();
 797              		.loc 1 329 5 is_stmt 1 view .LVU199
 329:Core/Src/main.c ****         Error_Handler();
 798              		.loc 1 329 9 is_stmt 0 view .LVU200
 799 0068 01A8     		add	r0, sp, #4
 800 006a FFF7FEFF 		bl	HAL_RCCEx_PeriphCLKConfig
 801              	.LVL47:
 329:Core/Src/main.c ****         Error_Handler();
 802              		.loc 1 329 8 view .LVU201
 803 006e 30B9     		cbnz	r0, .L41
 332:Core/Src/main.c **** 
 804              		.loc 1 332 1 view .LVU202
 805 0070 17B0     		add	sp, sp, #92
 806              	.LCFI13:
 807              		.cfi_remember_state
 808              		.cfi_def_cfa_offset 4
 809              		@ sp needed
 810 0072 5DF804FB 		ldr	pc, [sp], #4
 811              	.L39:
 812              	.LCFI14:
 813              		.cfi_restore_state
 310:Core/Src/main.c ****     }
 814              		.loc 1 310 9 is_stmt 1 view .LVU203
 815 0076 FFF7FEFF 		bl	Error_Handler
 816              	.LVL48:
 817              	.L40:
 323:Core/Src/main.c ****     }
 818              		.loc 1 323 9 view .LVU204
 819 007a FFF7FEFF 		bl	Error_Handler
 820              	.LVL49:
 821              	.L41:
 330:Core/Src/main.c ****     }
 822              		.loc 1 330 9 view .LVU205
 823 007e FFF7FEFF 		bl	Error_Handler
 824              	.LVL50:
 825              		.cfi_endproc
 826              	.LFE134:
 828              		.global	__aeabi_i2d
 829              		.global	__aeabi_dmul
 830              		.global	__aeabi_ddiv
 831              		.global	__aeabi_d2f
 832              		.section	.rodata.main.str1.4,"aMS",%progbits,1
ARM GAS  /var/folders/l2/71_2bdwd5hl5fnnvwg2sr4v80000gn/T//ccJdbVnv.s 			page 25


 833              		.align	2
 834              	.LC0:
 835 0000 424C4452 		.ascii	"BLDRV Gen2\015\012\000"
 835      56204765 
 835      6E320D0A 
 835      00
 836 000d 000000   		.align	2
 837              	.LC1:
 838 0010 43616C69 		.ascii	"Calibration Start\015\012\000"
 838      62726174 
 838      696F6E20 
 838      53746172 
 838      740D0A00 
 839              		.align	2
 840              	.LC2:
 841 0024 4F666673 		.ascii	"Offset: \000"
 841      65743A20 
 841      00
 842 002d 000000   		.align	2
 843              	.LC3:
 844 0030 0D0A00   		.ascii	"\015\012\000"
 845 0033 00       		.align	2
 846              	.LC4:
 847 0034 43616C69 		.ascii	"Calibration End\015\012\000"
 847      62726174 
 847      696F6E20 
 847      456E640D 
 847      0A00
 848              		.global	__aeabi_f2d
 849              		.global	__aeabi_dadd
 850              		.global	__aeabi_dsub
 851              		.section	.text.main,"ax",%progbits
 852              		.align	1
 853              		.global	main
 854              		.syntax unified
 855              		.thumb
 856              		.thumb_func
 858              	main:
 859              	.LFB133:
 182:Core/Src/main.c ****     /* USER CODE BEGIN 1 */
 860              		.loc 1 182 16 view -0
 861              		.cfi_startproc
 862              		@ args = 0, pretend = 0, frame = 0
 863              		@ frame_needed = 0, uses_anonymous_args = 0
 864 0000 2DE9D043 		push	{r4, r6, r7, r8, r9, lr}
 865              	.LCFI15:
 866              		.cfi_def_cfa_offset 24
 867              		.cfi_offset 4, -24
 868              		.cfi_offset 6, -20
 869              		.cfi_offset 7, -16
 870              		.cfi_offset 8, -12
 871              		.cfi_offset 9, -8
 872              		.cfi_offset 14, -4
 873 0004 2DED028B 		vpush.64	{d8}
 874              	.LCFI16:
 875              		.cfi_def_cfa_offset 32
 876              		.cfi_offset 80, -32
ARM GAS  /var/folders/l2/71_2bdwd5hl5fnnvwg2sr4v80000gn/T//ccJdbVnv.s 			page 26


 877              		.cfi_offset 81, -28
 192:Core/Src/main.c **** 
 878              		.loc 1 192 5 view .LVU207
 879 0008 FFF7FEFF 		bl	HAL_Init
 880              	.LVL51:
 199:Core/Src/main.c **** 
 881              		.loc 1 199 5 view .LVU208
 882 000c FFF7FEFF 		bl	SystemClock_Config
 883              	.LVL52:
 206:Core/Src/main.c ****     MX_DMA_Init();
 884              		.loc 1 206 5 view .LVU209
 885 0010 FFF7FEFF 		bl	MX_GPIO_Init
 886              	.LVL53:
 207:Core/Src/main.c ****     MX_TIM1_Init();
 887              		.loc 1 207 5 view .LVU210
 888 0014 FFF7FEFF 		bl	MX_DMA_Init
 889              	.LVL54:
 208:Core/Src/main.c ****     MX_TIM16_Init();
 890              		.loc 1 208 5 view .LVU211
 891 0018 FFF7FEFF 		bl	MX_TIM1_Init
 892              	.LVL55:
 209:Core/Src/main.c ****     MX_TIM2_Init();
 893              		.loc 1 209 5 view .LVU212
 894 001c FFF7FEFF 		bl	MX_TIM16_Init
 895              	.LVL56:
 210:Core/Src/main.c ****     MX_TIM3_Init();
 896              		.loc 1 210 5 view .LVU213
 897 0020 FFF7FEFF 		bl	MX_TIM2_Init
 898              	.LVL57:
 211:Core/Src/main.c ****     MX_TIM6_Init();
 899              		.loc 1 211 5 view .LVU214
 900 0024 FFF7FEFF 		bl	MX_TIM3_Init
 901              	.LVL58:
 212:Core/Src/main.c ****     MX_SPI1_Init();
 902              		.loc 1 212 5 view .LVU215
 903 0028 FFF7FEFF 		bl	MX_TIM6_Init
 904              	.LVL59:
 213:Core/Src/main.c ****     MX_USART1_UART_Init();
 905              		.loc 1 213 5 view .LVU216
 906 002c FFF7FEFF 		bl	MX_SPI1_Init
 907              	.LVL60:
 214:Core/Src/main.c ****     /* USER CODE BEGIN 2 */
 908              		.loc 1 214 5 view .LVU217
 909 0030 FFF7FEFF 		bl	MX_USART1_UART_Init
 910              	.LVL61:
 216:Core/Src/main.c ****     setbuf(stdout, NULL);
 911              		.loc 1 216 5 view .LVU218
 216:Core/Src/main.c ****     setbuf(stdout, NULL);
 912              		.loc 1 216 12 is_stmt 0 view .LVU219
 913 0034 804C     		ldr	r4, .L47+40
 914 0036 2368     		ldr	r3, [r4]
 216:Core/Src/main.c ****     setbuf(stdout, NULL);
 915              		.loc 1 216 5 view .LVU220
 916 0038 0021     		movs	r1, #0
 917 003a 5868     		ldr	r0, [r3, #4]
 918 003c FFF7FEFF 		bl	setbuf
 919              	.LVL62:
ARM GAS  /var/folders/l2/71_2bdwd5hl5fnnvwg2sr4v80000gn/T//ccJdbVnv.s 			page 27


 217:Core/Src/main.c ****     setbuf(stderr, NULL);
 920              		.loc 1 217 5 is_stmt 1 view .LVU221
 217:Core/Src/main.c ****     setbuf(stderr, NULL);
 921              		.loc 1 217 12 is_stmt 0 view .LVU222
 922 0040 2368     		ldr	r3, [r4]
 217:Core/Src/main.c ****     setbuf(stderr, NULL);
 923              		.loc 1 217 5 view .LVU223
 924 0042 0021     		movs	r1, #0
 925 0044 9868     		ldr	r0, [r3, #8]
 926 0046 FFF7FEFF 		bl	setbuf
 927              	.LVL63:
 218:Core/Src/main.c ****     dma_printf_init(&huart1);
 928              		.loc 1 218 5 is_stmt 1 view .LVU224
 218:Core/Src/main.c ****     dma_printf_init(&huart1);
 929              		.loc 1 218 12 is_stmt 0 view .LVU225
 930 004a 2368     		ldr	r3, [r4]
 218:Core/Src/main.c ****     dma_printf_init(&huart1);
 931              		.loc 1 218 5 view .LVU226
 932 004c 0021     		movs	r1, #0
 933 004e D868     		ldr	r0, [r3, #12]
 934 0050 FFF7FEFF 		bl	setbuf
 935              	.LVL64:
 219:Core/Src/main.c ****     dma_scanf_init(&huart1);
 936              		.loc 1 219 5 is_stmt 1 view .LVU227
 937 0054 794C     		ldr	r4, .L47+44
 938 0056 2046     		mov	r0, r4
 939 0058 FFF7FEFF 		bl	dma_printf_init
 940              	.LVL65:
 220:Core/Src/main.c **** 
 941              		.loc 1 220 5 view .LVU228
 942 005c 2046     		mov	r0, r4
 943 005e FFF7FEFF 		bl	dma_scanf_init
 944              	.LVL66:
 223:Core/Src/main.c ****     HAL_TIMEx_PWMN_Start(&htim1, TIM_CHANNEL_1);  // L
 945              		.loc 1 223 5 view .LVU229
 946 0062 774C     		ldr	r4, .L47+48
 947 0064 0021     		movs	r1, #0
 948 0066 2046     		mov	r0, r4
 949 0068 FFF7FEFF 		bl	HAL_TIM_PWM_Start
 950              	.LVL67:
 224:Core/Src/main.c **** 
 951              		.loc 1 224 5 view .LVU230
 952 006c 0021     		movs	r1, #0
 953 006e 2046     		mov	r0, r4
 954 0070 FFF7FEFF 		bl	HAL_TIMEx_PWMN_Start
 955              	.LVL68:
 227:Core/Src/main.c ****     HAL_TIMEx_PWMN_Start(&htim16, TIM_CHANNEL_1);  // L
 956              		.loc 1 227 5 view .LVU231
 957 0074 734E     		ldr	r6, .L47+52
 958 0076 0021     		movs	r1, #0
 959 0078 3046     		mov	r0, r6
 960 007a FFF7FEFF 		bl	HAL_TIM_PWM_Start
 961              	.LVL69:
 228:Core/Src/main.c **** 
 962              		.loc 1 228 5 view .LVU232
 963 007e 0021     		movs	r1, #0
 964 0080 3046     		mov	r0, r6
ARM GAS  /var/folders/l2/71_2bdwd5hl5fnnvwg2sr4v80000gn/T//ccJdbVnv.s 			page 28


 965 0082 FFF7FEFF 		bl	HAL_TIMEx_PWMN_Start
 966              	.LVL70:
 231:Core/Src/main.c ****     HAL_TIMEx_PWMN_Start(&htim1, TIM_CHANNEL_3);  // L
 967              		.loc 1 231 5 view .LVU233
 968 0086 0C21     		movs	r1, #12
 969 0088 6F48     		ldr	r0, .L47+56
 970 008a FFF7FEFF 		bl	HAL_TIM_PWM_Start
 971              	.LVL71:
 232:Core/Src/main.c **** 
 972              		.loc 1 232 5 view .LVU234
 973 008e 0821     		movs	r1, #8
 974 0090 2046     		mov	r0, r4
 975 0092 FFF7FEFF 		bl	HAL_TIMEx_PWMN_Start
 976              	.LVL72:
 235:Core/Src/main.c **** 
 977              		.loc 1 235 5 view .LVU235
 978 0096 0021     		movs	r1, #0
 979 0098 6C48     		ldr	r0, .L47+60
 980 009a FFF7FEFF 		bl	HAL_TIM_PWM_Start
 981              	.LVL73:
 238:Core/Src/main.c **** 
 982              		.loc 1 238 5 view .LVU236
 983 009e 6C48     		ldr	r0, .L47+64
 984 00a0 FFF7FEFF 		bl	HAL_TIM_Base_Start
 985              	.LVL74:
 241:Core/Src/main.c **** 
 986              		.loc 1 241 5 view .LVU237
 987 00a4 0022     		movs	r2, #0
 988 00a6 0221     		movs	r1, #2
 989 00a8 6A48     		ldr	r0, .L47+68
 990 00aa FFF7FEFF 		bl	HAL_GPIO_WritePin
 991              	.LVL75:
 247:Core/Src/main.c ****         cos_table[i] = cos(radians(i * 360.0 / 1170.0));
 992              		.loc 1 247 5 view .LVU238
 993              	.LBB8:
 247:Core/Src/main.c ****         cos_table[i] = cos(radians(i * 360.0 / 1170.0));
 994              		.loc 1 247 10 view .LVU239
 247:Core/Src/main.c ****         cos_table[i] = cos(radians(i * 360.0 / 1170.0));
 995              		.loc 1 247 14 is_stmt 0 view .LVU240
 996 00ae 0024     		movs	r4, #0
 247:Core/Src/main.c ****         cos_table[i] = cos(radians(i * 360.0 / 1170.0));
 997              		.loc 1 247 5 view .LVU241
 998 00b0 21E0     		b	.L43
 999              	.LVL76:
 1000              	.L44:
 248:Core/Src/main.c ****     }
 1001              		.loc 1 248 9 is_stmt 1 discriminator 3 view .LVU242
 248:Core/Src/main.c ****     }
 1002              		.loc 1 248 28 is_stmt 0 discriminator 3 view .LVU243
 1003 00b2 2046     		mov	r0, r4
 1004 00b4 FFF7FEFF 		bl	__aeabi_i2d
 1005              	.LVL77:
 1006 00b8 0022     		movs	r2, #0
 1007 00ba 674B     		ldr	r3, .L47+72
 1008 00bc FFF7FEFF 		bl	__aeabi_dmul
 1009              	.LVL78:
 1010 00c0 53A3     		adr	r3, .L47
ARM GAS  /var/folders/l2/71_2bdwd5hl5fnnvwg2sr4v80000gn/T//ccJdbVnv.s 			page 29


 1011 00c2 D3E90023 		ldrd	r2, [r3]
 1012 00c6 FFF7FEFF 		bl	__aeabi_ddiv
 1013              	.LVL79:
 1014 00ca 53A3     		adr	r3, .L47+8
 1015 00cc D3E90023 		ldrd	r2, [r3]
 1016 00d0 FFF7FEFF 		bl	__aeabi_dmul
 1017              	.LVL80:
 248:Core/Src/main.c ****     }
 1018              		.loc 1 248 24 discriminator 3 view .LVU244
 1019 00d4 0022     		movs	r2, #0
 1020 00d6 614B     		ldr	r3, .L47+76
 1021 00d8 FFF7FEFF 		bl	__aeabi_ddiv
 1022              	.LVL81:
 1023 00dc 41EC100B 		vmov	d0, r0, r1
 1024 00e0 FFF7FEFF 		bl	cos
 1025              	.LVL82:
 1026 00e4 51EC100B 		vmov	r0, r1, d0
 1027 00e8 FFF7FEFF 		bl	__aeabi_d2f
 1028              	.LVL83:
 248:Core/Src/main.c ****     }
 1029              		.loc 1 248 22 discriminator 3 view .LVU245
 1030 00ec 5C4B     		ldr	r3, .L47+80
 1031 00ee 03EB8403 		add	r3, r3, r4, lsl #2
 1032 00f2 1860     		str	r0, [r3]	@ float
 247:Core/Src/main.c ****         cos_table[i] = cos(radians(i * 360.0 / 1170.0));
 1033              		.loc 1 247 32 is_stmt 1 discriminator 3 view .LVU246
 1034 00f4 0134     		adds	r4, r4, #1
 1035              	.LVL84:
 1036              	.L43:
 247:Core/Src/main.c ****         cos_table[i] = cos(radians(i * 360.0 / 1170.0));
 1037              		.loc 1 247 23 discriminator 1 view .LVU247
 1038 00f6 40F29143 		movw	r3, #1169
 1039 00fa 9C42     		cmp	r4, r3
 1040 00fc D9DD     		ble	.L44
 1041              	.LBE8:
 251:Core/Src/main.c ****     dma_printf_puts("Calibration Start\r\n");
 1042              		.loc 1 251 5 view .LVU248
 1043 00fe 5948     		ldr	r0, .L47+84
 1044 0100 FFF7FEFF 		bl	dma_printf_puts
 1045              	.LVL85:
 252:Core/Src/main.c ****     setPhase(0, 50);
 1046              		.loc 1 252 5 view .LVU249
 1047 0104 5848     		ldr	r0, .L47+88
 1048 0106 FFF7FEFF 		bl	dma_printf_puts
 1049              	.LVL86:
 253:Core/Src/main.c ****     HAL_Delay(500);
 1050              		.loc 1 253 5 view .LVU250
 1051 010a 3221     		movs	r1, #50
 1052 010c 0020     		movs	r0, #0
 1053 010e FFF7FEFF 		bl	setPhase
 1054              	.LVL87:
 254:Core/Src/main.c **** 
 1055              		.loc 1 254 5 view .LVU251
 1056 0112 4FF4FA70 		mov	r0, #500
 1057 0116 FFF7FEFF 		bl	HAL_Delay
 1058              	.LVL88:
 256:Core/Src/main.c ****     offset = getRotation();
ARM GAS  /var/folders/l2/71_2bdwd5hl5fnnvwg2sr4v80000gn/T//ccJdbVnv.s 			page 30


 1059              		.loc 1 256 5 view .LVU252
 256:Core/Src/main.c ****     offset = getRotation();
 1060              		.loc 1 256 18 is_stmt 0 view .LVU253
 1061 011a FFF7FEFF 		bl	getRotation
 1062              	.LVL89:
 257:Core/Src/main.c ****     dma_printf_puts("Offset: ");
 1063              		.loc 1 257 5 is_stmt 1 view .LVU254
 257:Core/Src/main.c ****     dma_printf_puts("Offset: ");
 1064              		.loc 1 257 14 is_stmt 0 view .LVU255
 1065 011e FFF7FEFF 		bl	getRotation
 1066              	.LVL90:
 1067 0122 0446     		mov	r4, r0
 1068              	.LVL91:
 258:Core/Src/main.c ****     dma_printf_puts(uint2char(offset));
 1069              		.loc 1 258 5 is_stmt 1 view .LVU256
 1070 0124 5148     		ldr	r0, .L47+92
 1071 0126 FFF7FEFF 		bl	dma_printf_puts
 1072              	.LVL92:
 259:Core/Src/main.c ****     dma_printf_puts("\r\n");
 1073              		.loc 1 259 5 view .LVU257
 259:Core/Src/main.c ****     dma_printf_puts("\r\n");
 1074              		.loc 1 259 21 is_stmt 0 view .LVU258
 1075 012a A0B2     		uxth	r0, r4
 1076 012c FFF7FEFF 		bl	uint2char
 1077              	.LVL93:
 259:Core/Src/main.c ****     dma_printf_puts("\r\n");
 1078              		.loc 1 259 5 view .LVU259
 1079 0130 FFF7FEFF 		bl	dma_printf_puts
 1080              	.LVL94:
 260:Core/Src/main.c ****     dma_printf_puts("Calibration End\r\n");
 1081              		.loc 1 260 5 is_stmt 1 view .LVU260
 1082 0134 4E48     		ldr	r0, .L47+96
 1083 0136 FFF7FEFF 		bl	dma_printf_puts
 1084              	.LVL95:
 261:Core/Src/main.c **** 
 1085              		.loc 1 261 5 view .LVU261
 1086 013a 4E48     		ldr	r0, .L47+100
 1087 013c FFF7FEFF 		bl	dma_printf_puts
 1088              	.LVL96:
 1089              	.L45:
 263:Core/Src/main.c ****         /* USER CODE END WHILE */
 1090              		.loc 1 263 5 discriminator 1 view .LVU262
 1091              	.LBB9:
 267:Core/Src/main.c **** 
 1092              		.loc 1 267 9 discriminator 1 view .LVU263
 267:Core/Src/main.c **** 
 1093              		.loc 1 267 29 is_stmt 0 discriminator 1 view .LVU264
 1094 0140 2046     		mov	r0, r4
 1095 0142 FFF7FEFF 		bl	electrical_angle
 1096              	.LVL97:
 269:Core/Src/main.c ****         float vol_d = 0;
 1097              		.loc 1 269 9 is_stmt 1 discriminator 1 view .LVU265
 270:Core/Src/main.c **** 
 1098              		.loc 1 270 9 discriminator 1 view .LVU266
 272:Core/Src/main.c ****                           vol_q * cos_table[(rotation + 877) % 1170];
 1099              		.loc 1 272 9 discriminator 1 view .LVU267
 272:Core/Src/main.c ****                           vol_q * cos_table[(rotation + 877) % 1170];
ARM GAS  /var/folders/l2/71_2bdwd5hl5fnnvwg2sr4v80000gn/T//ccJdbVnv.s 			page 31


 1100              		.loc 1 272 44 is_stmt 0 discriminator 1 view .LVU268
 1101 0146 4649     		ldr	r1, .L47+80
 1102 0148 01EB8003 		add	r3, r1, r0, lsl #2
 1103 014c 93ED007A 		vldr.32	s14, [r3]
 272:Core/Src/main.c ****                           vol_q * cos_table[(rotation + 877) % 1170];
 1104              		.loc 1 272 33 discriminator 1 view .LVU269
 1105 0150 9FED496A 		vldr.32	s12, .L47+104
 1106 0154 27EE065A 		vmul.f32	s10, s14, s12
 273:Core/Src/main.c **** 
 1107              		.loc 1 273 55 discriminator 1 view .LVU270
 1108 0158 00F26D30 		addw	r0, r0, #877
 1109              	.LVL98:
 273:Core/Src/main.c **** 
 1110              		.loc 1 273 62 discriminator 1 view .LVU271
 1111 015c 474A     		ldr	r2, .L47+108
 1112 015e 82FB0032 		smull	r3, r2, r2, r0
 1113 0162 0244     		add	r2, r2, r0
 1114 0164 C317     		asrs	r3, r0, #31
 1115 0166 C3EBA223 		rsb	r3, r3, r2, asr #10
 1116 016a 40F29242 		movw	r2, #1170
 1117 016e 02FB1303 		mls	r3, r2, r3, r0
 273:Core/Src/main.c **** 
 1118              		.loc 1 273 44 discriminator 1 view .LVU272
 1119 0172 01EB8301 		add	r1, r1, r3, lsl #2
 1120 0176 D1ED007A 		vldr.32	s15, [r1]
 273:Core/Src/main.c **** 
 1121              		.loc 1 273 33 discriminator 1 view .LVU273
 1122 017a F2EE006A 		vmov.f32	s13, #8.0e+0
 1123 017e 67EEA65A 		vmul.f32	s11, s15, s13
 1124              	.LVL99:
 275:Core/Src/main.c ****                          vol_q * cos_table[rotation];
 1125              		.loc 1 275 9 is_stmt 1 discriminator 1 view .LVU274
 275:Core/Src/main.c ****                          vol_q * cos_table[rotation];
 1126              		.loc 1 275 32 is_stmt 0 discriminator 1 view .LVU275
 1127 0182 67EE867A 		vmul.f32	s15, s15, s12
 276:Core/Src/main.c **** 
 1128              		.loc 1 276 32 discriminator 1 view .LVU276
 1129 0186 27EE267A 		vmul.f32	s14, s14, s13
 275:Core/Src/main.c ****                          vol_q * cos_table[rotation];
 1130              		.loc 1 275 15 discriminator 1 view .LVU277
 1131 018a 37EE878A 		vadd.f32	s16, s15, s14
 1132              	.LVL100:
 278:Core/Src/main.c ****         float vol_v = -0.40824829 * vol_alpha + 0.707106781 * vol_beta;
 1133              		.loc 1 278 9 is_stmt 1 discriminator 1 view .LVU278
 278:Core/Src/main.c ****         float vol_v = -0.40824829 * vol_alpha + 0.707106781 * vol_beta;
 1134              		.loc 1 278 34 is_stmt 0 discriminator 1 view .LVU279
 1135 018e 75EE657A 		vsub.f32	s15, s10, s11
 1136              	.LVL101:
 278:Core/Src/main.c ****         float vol_v = -0.40824829 * vol_alpha + 0.707106781 * vol_beta;
 1137              		.loc 1 278 34 discriminator 1 view .LVU280
 1138 0192 17EE900A 		vmov	r0, s15
 1139 0196 FFF7FEFF 		bl	__aeabi_f2d
 1140              	.LVL102:
 278:Core/Src/main.c ****         float vol_v = -0.40824829 * vol_alpha + 0.707106781 * vol_beta;
 1141              		.loc 1 278 34 discriminator 1 view .LVU281
 1142 019a 0646     		mov	r6, r0
 1143 019c 0F46     		mov	r7, r1
ARM GAS  /var/folders/l2/71_2bdwd5hl5fnnvwg2sr4v80000gn/T//ccJdbVnv.s 			page 32


 1144 019e 20A3     		adr	r3, .L47+16
 1145 01a0 D3E90023 		ldrd	r2, [r3]
 1146 01a4 FFF7FEFF 		bl	__aeabi_dmul
 1147              	.LVL103:
 278:Core/Src/main.c ****         float vol_v = -0.40824829 * vol_alpha + 0.707106781 * vol_beta;
 1148              		.loc 1 278 15 discriminator 1 view .LVU282
 1149 01a8 FFF7FEFF 		bl	__aeabi_d2f
 1150              	.LVL104:
 1151 01ac 08EE900A 		vmov	s17, r0
 1152              	.LVL105:
 279:Core/Src/main.c ****         float vol_w = -0.40824829 * vol_alpha - 0.707106781 * vol_beta;
 1153              		.loc 1 279 9 is_stmt 1 discriminator 1 view .LVU283
 279:Core/Src/main.c ****         float vol_w = -0.40824829 * vol_alpha - 0.707106781 * vol_beta;
 1154              		.loc 1 279 35 is_stmt 0 discriminator 1 view .LVU284
 1155 01b0 1DA3     		adr	r3, .L47+24
 1156 01b2 D3E90023 		ldrd	r2, [r3]
 1157 01b6 3046     		mov	r0, r6
 1158              	.LVL106:
 279:Core/Src/main.c ****         float vol_w = -0.40824829 * vol_alpha - 0.707106781 * vol_beta;
 1159              		.loc 1 279 35 discriminator 1 view .LVU285
 1160 01b8 3946     		mov	r1, r7
 1161 01ba FFF7FEFF 		bl	__aeabi_dmul
 1162              	.LVL107:
 1163 01be 0646     		mov	r6, r0
 1164 01c0 0F46     		mov	r7, r1
 279:Core/Src/main.c ****         float vol_w = -0.40824829 * vol_alpha - 0.707106781 * vol_beta;
 1165              		.loc 1 279 61 discriminator 1 view .LVU286
 1166 01c2 18EE100A 		vmov	r0, s16
 1167 01c6 FFF7FEFF 		bl	__aeabi_f2d
 1168              	.LVL108:
 1169 01ca 19A3     		adr	r3, .L47+32
 1170 01cc D3E90023 		ldrd	r2, [r3]
 1171 01d0 FFF7FEFF 		bl	__aeabi_dmul
 1172              	.LVL109:
 1173 01d4 8046     		mov	r8, r0
 1174 01d6 8946     		mov	r9, r1
 279:Core/Src/main.c ****         float vol_w = -0.40824829 * vol_alpha - 0.707106781 * vol_beta;
 1175              		.loc 1 279 47 discriminator 1 view .LVU287
 1176 01d8 0246     		mov	r2, r0
 1177 01da 0B46     		mov	r3, r1
 1178 01dc 3046     		mov	r0, r6
 1179 01de 3946     		mov	r1, r7
 1180 01e0 FFF7FEFF 		bl	__aeabi_dadd
 1181              	.LVL110:
 279:Core/Src/main.c ****         float vol_w = -0.40824829 * vol_alpha - 0.707106781 * vol_beta;
 1182              		.loc 1 279 15 discriminator 1 view .LVU288
 1183 01e4 FFF7FEFF 		bl	__aeabi_d2f
 1184              	.LVL111:
 1185 01e8 08EE100A 		vmov	s16, r0
 1186              	.LVL112:
 280:Core/Src/main.c **** 
 1187              		.loc 1 280 9 is_stmt 1 discriminator 1 view .LVU289
 280:Core/Src/main.c **** 
 1188              		.loc 1 280 47 is_stmt 0 discriminator 1 view .LVU290
 1189 01ec 4246     		mov	r2, r8
 1190 01ee 4B46     		mov	r3, r9
 1191 01f0 3046     		mov	r0, r6
ARM GAS  /var/folders/l2/71_2bdwd5hl5fnnvwg2sr4v80000gn/T//ccJdbVnv.s 			page 33


 1192              	.LVL113:
 280:Core/Src/main.c **** 
 1193              		.loc 1 280 47 discriminator 1 view .LVU291
 1194 01f2 3946     		mov	r1, r7
 1195 01f4 FFF7FEFF 		bl	__aeabi_dsub
 1196              	.LVL114:
 280:Core/Src/main.c **** 
 1197              		.loc 1 280 15 discriminator 1 view .LVU292
 1198 01f8 FFF7FEFF 		bl	__aeabi_d2f
 1199              	.LVL115:
 282:Core/Src/main.c **** 
 1200              		.loc 1 282 9 is_stmt 1 discriminator 1 view .LVU293
 1201 01fc 01EE100A 		vmov	s2, r0
 1202 0200 F0EE480A 		vmov.f32	s1, s16
 1203 0204 B0EE680A 		vmov.f32	s0, s17
 1204 0208 FFF7FEFF 		bl	setVoltage
 1205              	.LVL116:
 282:Core/Src/main.c **** 
 1206              		.loc 1 282 9 is_stmt 0 discriminator 1 view .LVU294
 1207              	.LBE9:
 263:Core/Src/main.c ****         /* USER CODE END WHILE */
 1208              		.loc 1 263 11 is_stmt 1 discriminator 1 view .LVU295
 1209 020c 98E7     		b	.L45
 1210              	.L48:
 1211 020e 00BF     		.align	3
 1212              	.L47:
 1213 0210 00000000 		.word	0
 1214 0214 00489240 		.word	1083328512
 1215 0218 182D4454 		.word	1413754136
 1216 021c FB210940 		.word	1074340347
 1217 0220 C9AA8C6F 		.word	1871489737
 1218 0224 BD20EA3F 		.word	1072308413
 1219 0228 C9AA8C6F 		.word	1871489737
 1220 022c BD20DABF 		.word	-1076223811
 1221 0230 3E986566 		.word	1717934142
 1222 0234 9EA0E63F 		.word	1072079006
 1223 0238 00000000 		.word	_impure_ptr
 1224 023c 00000000 		.word	huart1
 1225 0240 00000000 		.word	htim1
 1226 0244 00000000 		.word	htim16
 1227 0248 00000000 		.word	htim3
 1228 024c 00000000 		.word	htim2
 1229 0250 00000000 		.word	htim6
 1230 0254 00040048 		.word	1207960576
 1231 0258 00807640 		.word	1081507840
 1232 025c 00806640 		.word	1080459264
 1233 0260 00000000 		.word	cos_table
 1234 0264 00000000 		.word	.LC0
 1235 0268 10000000 		.word	.LC1
 1236 026c 24000000 		.word	.LC2
 1237 0270 30000000 		.word	.LC3
 1238 0274 34000000 		.word	.LC4
 1239 0278 00000000 		.word	0
 1240 027c E1000EE0 		.word	-535953183
 1241              		.cfi_endproc
 1242              	.LFE133:
 1244              		.section	.bss.str.0,"aw",%nobits
ARM GAS  /var/folders/l2/71_2bdwd5hl5fnnvwg2sr4v80000gn/T//ccJdbVnv.s 			page 34


 1245              		.align	2
 1248              	str.0:
 1249 0000 00000000 		.space	5
 1249      00
 1250              		.global	cos_table
 1251              		.section	.bss.cos_table,"aw",%nobits
 1252              		.align	2
 1255              	cos_table:
 1256 0000 00000000 		.space	4680
 1256      00000000 
 1256      00000000 
 1256      00000000 
 1256      00000000 
 1257              		.text
 1258              	.Letext0:
 1259              		.file 3 "/opt/ST/STM32CubeCLT_1.16.0/GNU-tools-for-STM32/arm-none-eabi/include/machine/_default_ty
 1260              		.file 4 "/opt/ST/STM32CubeCLT_1.16.0/GNU-tools-for-STM32/arm-none-eabi/include/sys/_stdint.h"
 1261              		.file 5 "Drivers/CMSIS/Device/ST/STM32F3xx/Include/stm32f303x8.h"
 1262              		.file 6 "Drivers/STM32F3xx_HAL_Driver/Inc/stm32f3xx_hal_def.h"
 1263              		.file 7 "Drivers/STM32F3xx_HAL_Driver/Inc/stm32f3xx_hal_rcc.h"
 1264              		.file 8 "Drivers/STM32F3xx_HAL_Driver/Inc/stm32f3xx_hal_rcc_ex.h"
 1265              		.file 9 "Drivers/STM32F3xx_HAL_Driver/Inc/stm32f3xx_hal_gpio.h"
 1266              		.file 10 "Drivers/STM32F3xx_HAL_Driver/Inc/stm32f3xx_hal_dma.h"
 1267              		.file 11 "Drivers/STM32F3xx_HAL_Driver/Inc/stm32f3xx_hal_spi.h"
 1268              		.file 12 "Drivers/STM32F3xx_HAL_Driver/Inc/stm32f3xx_hal_tim.h"
 1269              		.file 13 "Drivers/STM32F3xx_HAL_Driver/Inc/stm32f3xx_hal_uart.h"
 1270              		.file 14 "Core/Inc/spi.h"
 1271              		.file 15 "Core/Inc/tim.h"
 1272              		.file 16 "Core/Inc/usart.h"
 1273              		.file 17 "/opt/ST/STM32CubeCLT_1.16.0/GNU-tools-for-STM32/lib/gcc/arm-none-eabi/12.3.1/include/std
 1274              		.file 18 "/opt/ST/STM32CubeCLT_1.16.0/GNU-tools-for-STM32/arm-none-eabi/include/sys/_types.h"
 1275              		.file 19 "/opt/ST/STM32CubeCLT_1.16.0/GNU-tools-for-STM32/arm-none-eabi/include/sys/reent.h"
 1276              		.file 20 "/opt/ST/STM32CubeCLT_1.16.0/GNU-tools-for-STM32/arm-none-eabi/include/sys/lock.h"
 1277              		.file 21 "/opt/ST/STM32CubeCLT_1.16.0/GNU-tools-for-STM32/arm-none-eabi/include/stdio.h"
 1278              		.file 22 "Core/Inc/dma_printf.h"
 1279              		.file 23 "Drivers/STM32F3xx_HAL_Driver/Inc/stm32f3xx_hal.h"
 1280              		.file 24 "Drivers/STM32F3xx_HAL_Driver/Inc/stm32f3xx_hal_tim_ex.h"
 1281              		.file 25 "Core/Inc/dma.h"
 1282              		.file 26 "Core/Inc/gpio.h"
 1283              		.file 27 "/opt/ST/STM32CubeCLT_1.16.0/GNU-tools-for-STM32/arm-none-eabi/include/math.h"
 1284              		.file 28 "<built-in>"
ARM GAS  /var/folders/l2/71_2bdwd5hl5fnnvwg2sr4v80000gn/T//ccJdbVnv.s 			page 35


DEFINED SYMBOLS
                            *ABS*:00000000 main.c
/var/folders/l2/71_2bdwd5hl5fnnvwg2sr4v80000gn/T//ccJdbVnv.s:21     .text.spiCalcEvenParity:00000000 $t
/var/folders/l2/71_2bdwd5hl5fnnvwg2sr4v80000gn/T//ccJdbVnv.s:27     .text.spiCalcEvenParity:00000000 spiCalcEvenParity
/var/folders/l2/71_2bdwd5hl5fnnvwg2sr4v80000gn/T//ccJdbVnv.s:93     .text.AS5048A_read:00000000 $t
/var/folders/l2/71_2bdwd5hl5fnnvwg2sr4v80000gn/T//ccJdbVnv.s:99     .text.AS5048A_read:00000000 AS5048A_read
/var/folders/l2/71_2bdwd5hl5fnnvwg2sr4v80000gn/T//ccJdbVnv.s:188    .text.AS5048A_read:0000007c $d
/var/folders/l2/71_2bdwd5hl5fnnvwg2sr4v80000gn/T//ccJdbVnv.s:193    .text.getRotation:00000000 $t
/var/folders/l2/71_2bdwd5hl5fnnvwg2sr4v80000gn/T//ccJdbVnv.s:199    .text.getRotation:00000000 getRotation
/var/folders/l2/71_2bdwd5hl5fnnvwg2sr4v80000gn/T//ccJdbVnv.s:225    .text.electrical_angle:00000000 $t
/var/folders/l2/71_2bdwd5hl5fnnvwg2sr4v80000gn/T//ccJdbVnv.s:231    .text.electrical_angle:00000000 electrical_angle
/var/folders/l2/71_2bdwd5hl5fnnvwg2sr4v80000gn/T//ccJdbVnv.s:273    .text.electrical_angle:00000028 $d
/var/folders/l2/71_2bdwd5hl5fnnvwg2sr4v80000gn/T//ccJdbVnv.s:278    .text.setPhase:00000000 $t
/var/folders/l2/71_2bdwd5hl5fnnvwg2sr4v80000gn/T//ccJdbVnv.s:284    .text.setPhase:00000000 setPhase
/var/folders/l2/71_2bdwd5hl5fnnvwg2sr4v80000gn/T//ccJdbVnv.s:392    .text.setPhase:000000b4 $d
/var/folders/l2/71_2bdwd5hl5fnnvwg2sr4v80000gn/T//ccJdbVnv.s:1255   .bss.cos_table:00000000 cos_table
/var/folders/l2/71_2bdwd5hl5fnnvwg2sr4v80000gn/T//ccJdbVnv.s:401    .text.setVoltage:00000000 $t
/var/folders/l2/71_2bdwd5hl5fnnvwg2sr4v80000gn/T//ccJdbVnv.s:407    .text.setVoltage:00000000 setVoltage
/var/folders/l2/71_2bdwd5hl5fnnvwg2sr4v80000gn/T//ccJdbVnv.s:476    .text.setVoltage:0000005c $d
/var/folders/l2/71_2bdwd5hl5fnnvwg2sr4v80000gn/T//ccJdbVnv.s:484    .text.uint2char:00000000 $t
/var/folders/l2/71_2bdwd5hl5fnnvwg2sr4v80000gn/T//ccJdbVnv.s:490    .text.uint2char:00000000 uint2char
/var/folders/l2/71_2bdwd5hl5fnnvwg2sr4v80000gn/T//ccJdbVnv.s:555    .text.uint2char:0000005c $d
/var/folders/l2/71_2bdwd5hl5fnnvwg2sr4v80000gn/T//ccJdbVnv.s:1248   .bss.str.0:00000000 str.0
/var/folders/l2/71_2bdwd5hl5fnnvwg2sr4v80000gn/T//ccJdbVnv.s:563    .text.HAL_UART_TxCpltCallback:00000000 $t
/var/folders/l2/71_2bdwd5hl5fnnvwg2sr4v80000gn/T//ccJdbVnv.s:569    .text.HAL_UART_TxCpltCallback:00000000 HAL_UART_TxCpltCallback
/var/folders/l2/71_2bdwd5hl5fnnvwg2sr4v80000gn/T//ccJdbVnv.s:591    .text.__io_putchar:00000000 $t
/var/folders/l2/71_2bdwd5hl5fnnvwg2sr4v80000gn/T//ccJdbVnv.s:597    .text.__io_putchar:00000000 __io_putchar
/var/folders/l2/71_2bdwd5hl5fnnvwg2sr4v80000gn/T//ccJdbVnv.s:626    .text.__io_getchar:00000000 $t
/var/folders/l2/71_2bdwd5hl5fnnvwg2sr4v80000gn/T//ccJdbVnv.s:632    .text.__io_getchar:00000000 __io_getchar
/var/folders/l2/71_2bdwd5hl5fnnvwg2sr4v80000gn/T//ccJdbVnv.s:653    .text.Error_Handler:00000000 $t
/var/folders/l2/71_2bdwd5hl5fnnvwg2sr4v80000gn/T//ccJdbVnv.s:659    .text.Error_Handler:00000000 Error_Handler
/var/folders/l2/71_2bdwd5hl5fnnvwg2sr4v80000gn/T//ccJdbVnv.s:691    .text.SystemClock_Config:00000000 $t
/var/folders/l2/71_2bdwd5hl5fnnvwg2sr4v80000gn/T//ccJdbVnv.s:697    .text.SystemClock_Config:00000000 SystemClock_Config
/var/folders/l2/71_2bdwd5hl5fnnvwg2sr4v80000gn/T//ccJdbVnv.s:833    .rodata.main.str1.4:00000000 $d
/var/folders/l2/71_2bdwd5hl5fnnvwg2sr4v80000gn/T//ccJdbVnv.s:852    .text.main:00000000 $t
/var/folders/l2/71_2bdwd5hl5fnnvwg2sr4v80000gn/T//ccJdbVnv.s:858    .text.main:00000000 main
/var/folders/l2/71_2bdwd5hl5fnnvwg2sr4v80000gn/T//ccJdbVnv.s:1213   .text.main:00000210 $d
/var/folders/l2/71_2bdwd5hl5fnnvwg2sr4v80000gn/T//ccJdbVnv.s:1245   .bss.str.0:00000000 $d
/var/folders/l2/71_2bdwd5hl5fnnvwg2sr4v80000gn/T//ccJdbVnv.s:1252   .bss.cos_table:00000000 $d

UNDEFINED SYMBOLS
HAL_GPIO_WritePin
HAL_SPI_Transmit
HAL_SPI_Receive
hspi1
htim1
htim16
htim3
dma_printf_send_it
dma_printf_putc
dma_scanf_getc_blocking
memset
HAL_RCC_OscConfig
HAL_RCC_ClockConfig
HAL_RCCEx_PeriphCLKConfig
__aeabi_i2d
__aeabi_dmul
ARM GAS  /var/folders/l2/71_2bdwd5hl5fnnvwg2sr4v80000gn/T//ccJdbVnv.s 			page 36


__aeabi_ddiv
__aeabi_d2f
__aeabi_f2d
__aeabi_dadd
__aeabi_dsub
HAL_Init
MX_GPIO_Init
MX_DMA_Init
MX_TIM1_Init
MX_TIM16_Init
MX_TIM2_Init
MX_TIM3_Init
MX_TIM6_Init
MX_SPI1_Init
MX_USART1_UART_Init
setbuf
dma_printf_init
dma_scanf_init
HAL_TIM_PWM_Start
HAL_TIMEx_PWMN_Start
HAL_TIM_Base_Start
cos
dma_printf_puts
HAL_Delay
_impure_ptr
huart1
htim2
htim6
